Component: ARM Compiler 5.05 update 1 (build 106) Tool: armlink [4d0efa]

==============================================================================

Section Cross References

    main.o(.text) refers to _printf_percent.o(.ARM.Collect$$_printf_percent$$00000000) for _printf_percent
    main.o(.text) refers to _printf_f.o(.ARM.Collect$$_printf_percent$$00000003) for _printf_f
    main.o(.text) refers to printf1.o(x$fpl$printf1) for _printf_fp_dec
    main.o(.text) refers to misc.o(.text) for NVIC_PriorityGroupConfig
    main.o(.text) refers to delay.o(.text) for delay_init
    main.o(.text) refers to usart.o(.text) for vUart1_init
    main.o(.text) refers to hmi_user_uart.o(.text) for vUart2_init
    main.o(.text) refers to cmd_queue.o(.text) for queue_reset
    main.o(.text) refers to heap_5.o(.text) for vPortDefineHeapRegions
    main.o(.text) refers to dflt_clz.o(x$fpl$dfltu) for __aeabi_ui2d
    main.o(.text) refers to ddiv.o(x$fpl$ddiv) for __aeabi_ddiv
    main.o(.text) refers to __2printf.o(.text) for __2printf
    main.o(.text) refers to 24cxx.o(.text) for AT24CXX_Init
    main.o(.text) refers to diskio.o(.text) for disk_initialize
    main.o(.text) refers to exfuns.o(.text) for vFile_ver_malloc
    main.o(.text) refers to led.o(.text) for vLed_init
    main.o(.text) refers to can.o(.text) for vCan1_mode_init
    main.o(.text) refers to load_sensor.o(.text) for vLoad_sys_init
    main.o(.text) refers to hardcontrol.o(.text) for vHard_io_init
    main.o(.text) refers to uart_rfid.o(.text) for vClose_rfid
    main.o(.text) refers to iwdg.o(.text) for IWDG_Init
    main.o(.text) refers to hmi_driver.o(.text) for SetScreen
    main.o(.text) refers to tasks.o(.text) for xTaskCreate
    main.o(.text) refers to main.o(.constdata) for .constdata
    main.o(.text) refers to user_task.o(.data) for eDevice_Status1
    main.o(.text) refers to 24cxx.o(.data) for pEdata
    main.o(.text) refers to cmd_process.o(.data) for current_screen_id
    main.o(.text) refers to user_task.o(.text) for vStart_task
    system_stm32f4xx.o(.text) refers to system_stm32f4xx.o(.data) for SystemCoreClock
    user_task.o(.text) refers to _printf_pad.o(.text) for _printf_pre_padding
    user_task.o(.text) refers to _printf_percent.o(.ARM.Collect$$_printf_percent$$00000000) for _printf_percent
    user_task.o(.text) refers to _printf_d.o(.ARM.Collect$$_printf_percent$$00000009) for _printf_d
    user_task.o(.text) refers to _printf_dec.o(.text) for _printf_int_dec
    user_task.o(.text) refers to _printf_f.o(.ARM.Collect$$_printf_percent$$00000003) for _printf_f
    user_task.o(.text) refers to printf1.o(x$fpl$printf1) for _printf_fp_dec
    user_task.o(.text) refers to _printf_s.o(.ARM.Collect$$_printf_percent$$00000014) for _printf_s
    user_task.o(.text) refers to _printf_str.o(.text) for _printf_str
    user_task.o(.text) refers to _scanf_int.o(.text) for _scanf_int
    user_task.o(.text) refers to vsnprintf.o(.text) for vsnprintf
    user_task.o(.text) refers to queue.o(.text) for xQueueGenericSend
    user_task.o(.text) refers to mystring.o(.text) for GetString
    user_task.o(.text) refers to hmi_driver.o(.text) for SetTextValue
    user_task.o(.text) refers to tasks.o(.text) for vTaskDelay
    user_task.o(.text) refers to event_groups.o(.text) for xEventGroupSetBits
    user_task.o(.text) refers to hardcontrol.o(.text) for vMotor_stop
    user_task.o(.text) refers to 24cxx.o(.text) for vPush_one_eedata
    user_task.o(.text) refers to load_sensor.o(.text) for dFodder_data_get
    user_task.o(.text) refers to d2f.o(x$fpl$d2f) for __aeabi_d2f
    user_task.o(.text) refers to f2d.o(x$fpl$f2d) for __aeabi_f2d
    user_task.o(.text) refers to dflt_clz.o(x$fpl$dflt) for __aeabi_i2d
    user_task.o(.text) refers to dmul.o(x$fpl$dmul) for __aeabi_dmul
    user_task.o(.text) refers to dleqf.o(x$fpl$dleqf) for __aeabi_cdcmple
    user_task.o(.text) refers to fabs.o(i.__hardfp_fabs) for __hardfp_fabs
    user_task.o(.text) refers to user_task.o(.data) for uartDebugQueue_Handler
    user_task.o(.text) refers to 24cxx.o(.data) for pEdata
    user_task.o(.text) refers to drleqf.o(x$fpl$drleqf) for __aeabi_cdrcmple
    user_task.o(.text) refers to daddsub_clz.o(x$fpl$dadd) for __aeabi_dadd
    user_task.o(.text) refers to dfix.o(x$fpl$dfix) for __aeabi_d2iz
    user_task.o(.text) refers to uart_rfid.o(.text) for vOpen_rfid
    user_task.o(.text) refers to __2sprintf.o(.text) for __2sprintf
    user_task.o(.text) refers to user_task.o(.bss) for weight
    user_task.o(.text) refers to cmd_process.o(.bss) for sRtc_time
    user_task.o(.text) refers to ff.o(.text) for f_open
    user_task.o(.text) refers to exfuns.o(.data) for file
    user_task.o(.text) refers to cmd_queue.o(.text) for queue_find_cmd
    user_task.o(.text) refers to cmd_process.o(.text) for ProcessMessage
    user_task.o(.text) refers to delay.o(.text) for delay_xms
    user_task.o(.text) refers to cjson.o(.text) for cJSON_CreateObject
    user_task.o(.text) refers to __2printf.o(.text) for __2printf
    user_task.o(.text) refers to can.o(.text) for CAN1_Send_Msg
    user_task.o(.text) refers to strlen.o(.text) for strlen
    user_task.o(.text) refers to heap_5.o(.text) for vPortFree
    user_task.o(.text) refers to stm32f4xx_can.o(.text) for CAN_Transmit
    user_task.o(.text) refers to strncpy.o(.text) for strncpy
    user_task.o(.text) refers to rt_memclr_w.o(.text) for __aeabi_memclr4
    user_task.o(.text) refers to iwdg.o(.text) for IWDG_Feed
    user_task.o(.text) refers to cmd_process.o(.data) for current_screen_id
    user_task.o(.text) refers to port.o(.text) for vPortEnterCritical
    user_task.o(.text) refers to timers.o(.text) for xTimerCreate
    user_task.o(.text) refers to __0sscanf.o(.text) for __0sscanf
    cjson.o(.text) refers to _printf_percent.o(.ARM.Collect$$_printf_percent$$00000000) for _printf_percent
    cjson.o(.text) refers to _printf_d.o(.ARM.Collect$$_printf_percent$$00000009) for _printf_d
    cjson.o(.text) refers to _printf_dec.o(.text) for _printf_int_dec
    cjson.o(.text) refers to _printf_f.o(.ARM.Collect$$_printf_percent$$00000003) for _printf_f
    cjson.o(.text) refers to printf1.o(x$fpl$printf1) for _printf_fp_dec
    cjson.o(.text) refers to _printf_e.o(.ARM.Collect$$_printf_percent$$00000004) for _printf_e
    cjson.o(.text) refers to _printf_pad.o(.text) for _printf_pre_padding
    cjson.o(.text) refers to _printf_x.o(.ARM.Collect$$_printf_percent$$0000000C) for _printf_x
    cjson.o(.text) refers to _printf_hex_int_ll_ptr.o(.text) for _printf_longlong_hex
    cjson.o(.text) refers to tolower.o(.text) for tolower
    cjson.o(.text) refers to strlen.o(.text) for strlen
    cjson.o(.text) refers to rt_memcpy_v6.o(.text) for __aeabi_memcpy
    cjson.o(.text) refers to rt_memclr_w.o(.text) for __aeabi_memclr4
    cjson.o(.text) refers to dflt_clz.o(x$fpl$dflt) for __aeabi_i2d
    cjson.o(.text) refers to dmul.o(x$fpl$dmul) for __aeabi_dmul
    cjson.o(.text) refers to daddsub_clz.o(x$fpl$dadd) for __aeabi_dadd
    cjson.o(.text) refers to daddsub_clz.o(x$fpl$dsub) for __aeabi_dsub
    cjson.o(.text) refers to pow.o(i.__hardfp_pow) for __hardfp_pow
    cjson.o(.text) refers to dfix.o(x$fpl$dfix) for __aeabi_d2iz
    cjson.o(.text) refers to deqf.o(x$fpl$deqf) for __aeabi_cdcmpeq
    cjson.o(.text) refers to fabs.o(i.__hardfp_fabs) for __hardfp_fabs
    cjson.o(.text) refers to dleqf.o(x$fpl$dleqf) for __aeabi_cdcmple
    cjson.o(.text) refers to cjson.o(.data) for ep
    cjson.o(.text) refers to h1_alloc.o(.text) for malloc
    cjson.o(.text) refers to h1_free.o(.text) for free
    cjson.o(.text) refers to drleqf.o(x$fpl$drleqf) for __aeabi_cdrcmple
    cjson.o(.text) refers to __2sprintf.o(.text) for __2sprintf
    cjson.o(.text) refers to floor.o(i.__hardfp_floor) for __hardfp_floor
    cjson.o(.text) refers to cjson.o(.constdata) for firstByteMark
    cjson.o(.text) refers to strcpy.o(.text) for strcpy
    cjson.o(.text) refers to strchr.o(.text) for strchr
    cjson.o(.text) refers to strncmp.o(.text) for strncmp
    cjson.o(.text) refers to rt_memcpy_w.o(.text) for __aeabi_memcpy4
    cjson.o(.text) refers to f2d.o(x$fpl$f2d) for __aeabi_f2d
    cjson.o(.data) refers to heap_5.o(.text) for pvPortMalloc
    mystring.o(.text) refers to 24cxx.o(.data) for pEdata
    mystring.o(.text) refers to mystring.o(.data) for myString
    mystring.o(.data) refers to mystring.o(.conststring) for .conststring
    hardcontrol.o(.text) refers to stm32f4xx_rcc.o(.text) for RCC_AHB1PeriphClockCmd
    hardcontrol.o(.text) refers to stm32f4xx_gpio.o(.text) for GPIO_Init
    hardcontrol.o(.text) refers to stm32f4xx_syscfg.o(.text) for SYSCFG_EXTILineConfig
    hardcontrol.o(.text) refers to stm32f4xx_exti.o(.text) for EXTI_Init
    hardcontrol.o(.text) refers to misc.o(.text) for NVIC_Init
    hardcontrol.o(.text) refers to delay.o(.text) for delay_xns
    hardcontrol.o(.text) refers to event_groups.o(.text) for xEventGroupSetBitsFromISR
    hardcontrol.o(.text) refers to hardcontrol.o(.data) for e_motor_flag
    hardcontrol.o(.text) refers to user_task.o(.data) for EventGroupHandler
    led.o(.text) refers to stm32f4xx_rcc.o(.text) for RCC_AHB1PeriphClockCmd
    led.o(.text) refers to stm32f4xx_gpio.o(.text) for GPIO_Init
    cmd_queue.o(.text) refers to cmd_queue.o(.bss) for que
    cmd_queue.o(.text) refers to cmd_queue.o(.data) for cmd_state
    hmi_driver.o(.text) refers to hmi_user_uart.o(.text) for SendChar
    hmi_driver.o(.text) refers to tasks.o(.text) for vTaskSuspendAll
    hmi_user_uart.o(.text) refers to stm32f4xx_rcc.o(.text) for RCC_AHB1PeriphClockCmd
    hmi_user_uart.o(.text) refers to stm32f4xx_gpio.o(.text) for GPIO_PinAFConfig
    hmi_user_uart.o(.text) refers to stm32f4xx_usart.o(.text) for USART_Init
    hmi_user_uart.o(.text) refers to misc.o(.text) for NVIC_Init
    hmi_user_uart.o(.text) refers to cmd_queue.o(.text) for queue_push
    cmd_process.o(.text) refers to _scanf_int.o(.text) for _scanf_int
    cmd_process.o(.text) refers to _printf_percent.o(.ARM.Collect$$_printf_percent$$00000000) for _printf_percent
    cmd_process.o(.text) refers to _printf_d.o(.ARM.Collect$$_printf_percent$$00000009) for _printf_d
    cmd_process.o(.text) refers to _printf_dec.o(.text) for _printf_int_dec
    cmd_process.o(.text) refers to scanf1.o(x$fpl$scanf1) for _scanf_real
    cmd_process.o(.text) refers to _printf_f.o(.ARM.Collect$$_printf_percent$$00000003) for _printf_f
    cmd_process.o(.text) refers to printf1.o(x$fpl$printf1) for _printf_fp_dec
    cmd_process.o(.text) refers to _printf_pad.o(.text) for _printf_pre_padding
    cmd_process.o(.text) refers to hmi_driver.o(.text) for ReadTextValue
    cmd_process.o(.text) refers to __0sscanf.o(.text) for __0sscanf
    cmd_process.o(.text) refers to 24cxx.o(.text) for vPush_one_eedata
    cmd_process.o(.text) refers to can.o(.text) for vCan1_mode_init
    cmd_process.o(.text) refers to user_task.o(.text) for vUsart_report_msg
    cmd_process.o(.text) refers to mystring.o(.text) for GetString
    cmd_process.o(.text) refers to __2sprintf.o(.text) for __2sprintf
    cmd_process.o(.text) refers to tasks.o(.text) for vTaskDelay
    cmd_process.o(.text) refers to ff.o(.text) for f_open
    cmd_process.o(.text) refers to __2printf.o(.text) for __2printf
    cmd_process.o(.text) refers to rt_memclr_w.o(.text) for __aeabi_memclr4
    cmd_process.o(.text) refers to 24cxx.o(.data) for pEdata
    cmd_process.o(.text) refers to load_sensor.o(.data) for M_ALL
    cmd_process.o(.text) refers to exfuns.o(.data) for file
    cmd_process.o(.text) refers to cmd_process.o(.bss) for sRtc_time
    cmd_process.o(.text) refers to user_task.o(.data) for weight_count
    cmd_process.o(.text) refers to cmd_process.o(.data) for current_screen_id
    cmd_process.o(.text) refers to uart_rfid.o(.text) for vOpen_rfid
    cmd_process.o(.text) refers to hardcontrol.o(.text) for vMotor_run
    cmd_process.o(.text) refers to load_sensor.o(.text) for vLoad_fodder_clear
    cmd_process.o(.text) refers to dflt_clz.o(x$fpl$dflt) for __aeabi_i2d
    cmd_process.o(.text) refers to dmul.o(x$fpl$dmul) for __aeabi_dmul
    cmd_process.o(.text) refers to event_groups.o(.text) for xEventGroupSetBits
    cmd_process.o(.text) refers to rt_memcpy_w.o(.text) for __aeabi_memcpy4
    iwdg.o(.text) refers to stm32f4xx_iwdg.o(.text) for IWDG_WriteAccessCmd
    uart_rfid.o(.text) refers to stm32f4xx_usart.o(.text) for USART_ITConfig
    uart_rfid.o(.text) refers to rt_memclr_w.o(.text) for __aeabi_memclr4
    uart_rfid.o(.text) refers to user_task.o(.text) for vUsart_report_msg
    uart_rfid.o(.text) refers to tasks.o(.text) for vTaskDelay
    uart_rfid.o(.text) refers to uart_rfid.o(.bss) for que
    uart_rfid.o(.text) refers to uart_rfid.o(.data) for cmd_state
    ads126x.o(.text) refers to stm32f4xx_rcc.o(.text) for RCC_AHB1PeriphClockCmd
    ads126x.o(.text) refers to stm32f4xx_gpio.o(.text) for GPIO_Init
    ads126x.o(.text) refers to my_spi.o(.text) for SPI_IO_INIT
    ads126x.o(.text) refers to stm32f4xx_exti.o(.text) for EXTI_GetITStatus
    ads126x.o(.text) refers to delay.o(.text) for delay_us
    ads126x.o(.text) refers to 24cxx.o(.text) for vPush_one_eedata
    ads126x.o(.text) refers to dflt_clz.o(x$fpl$dflt) for __aeabi_i2d
    ads126x.o(.text) refers to ddiv.o(x$fpl$ddiv) for __aeabi_ddiv
    ads126x.o(.text) refers to dmul.o(x$fpl$dmul) for __aeabi_dmul
    ads126x.o(.text) refers to ads126x.o(.data) for AD_DRDY
    ads126x.o(.text) refers to user_task.o(.data) for eDevice_Status
    ads126x.o(.text) refers to 24cxx.o(.data) for pEdata
    ads126x.o(.text) refers to round.o(i.__hardfp_round) for __hardfp_round
    ads126x.o(.text) refers to rt_memclr_w.o(.text) for __aeabi_memclr4
    ads126x.o(.text) refers to daddsub_clz.o(x$fpl$dsub) for __aeabi_dsub
    ads126x.o(.text) refers to daddsub_clz.o(x$fpl$dadd) for __aeabi_dadd
    ads126x.o(.text) refers to d2f.o(x$fpl$d2f) for __aeabi_d2f
    math_helper.o(.text) refers to f2d.o(x$fpl$f2d) for __aeabi_f2d
    math_helper.o(.text) refers to log10.o(i.__hardfp_log10) for __hardfp_log10
    math_helper.o(.text) refers to dmul.o(x$fpl$dmul) for __aeabi_dmul
    math_helper.o(.text) refers to d2f.o(x$fpl$d2f) for __aeabi_d2f
    math_helper.o(.text) refers to dflt_clz.o(x$fpl$dflt) for __aeabi_i2d
    math_helper.o(.text) refers to daddsub_clz.o(x$fpl$dadd) for __aeabi_dadd
    math_helper.o(.text) refers to dfix.o(x$fpl$dfix) for __aeabi_d2iz
    load_sensor.o(.text) refers to _printf_percent.o(.ARM.Collect$$_printf_percent$$00000000) for _printf_percent
    load_sensor.o(.text) refers to _printf_f.o(.ARM.Collect$$_printf_percent$$00000003) for _printf_f
    load_sensor.o(.text) refers to _printf_s.o(.ARM.Collect$$_printf_percent$$00000014) for _printf_s
    load_sensor.o(.text) refers to printf1.o(x$fpl$printf1) for _printf_fp_dec
    load_sensor.o(.text) refers to _printf_str.o(.text) for _printf_str
    load_sensor.o(.text) refers to _printf_d.o(.ARM.Collect$$_printf_percent$$00000009) for _printf_d
    load_sensor.o(.text) refers to _printf_dec.o(.text) for _printf_int_dec
    load_sensor.o(.text) refers to _printf_pad.o(.text) for _printf_pre_padding
    load_sensor.o(.text) refers to _printf_c.o(.ARM.Collect$$_printf_percent$$00000013) for _printf_c
    load_sensor.o(.text) refers to ads126x.o(.text) for vAdc_io_init
    load_sensor.o(.text) refers to dflt_clz.o(x$fpl$dflt) for __aeabi_i2d
    load_sensor.o(.text) refers to ddiv.o(x$fpl$ddiv) for __aeabi_ddiv
    load_sensor.o(.text) refers to daddsub_clz.o(x$fpl$dsub) for __aeabi_dsub
    load_sensor.o(.text) refers to daddsub_clz.o(x$fpl$dadd) for __aeabi_dadd
    load_sensor.o(.text) refers to dflt_clz.o(x$fpl$dfltu) for __aeabi_ui2d
    load_sensor.o(.text) refers to dmul.o(x$fpl$dmul) for __aeabi_dmul
    load_sensor.o(.text) refers to dfix.o(x$fpl$dfix) for __aeabi_d2iz
    load_sensor.o(.text) refers to 24cxx.o(.text) for vPush_one_eedata
    load_sensor.o(.text) refers to mystring.o(.text) for GetString
    load_sensor.o(.text) refers to hmi_driver.o(.text) for SetTextValue
    load_sensor.o(.text) refers to __2sprintf.o(.text) for __2sprintf
    load_sensor.o(.text) refers to __2printf.o(.text) for __2printf
    load_sensor.o(.text) refers to 24cxx.o(.data) for pEdata
    load_sensor.o(.text) refers to load_sensor.o(.data) for temp1
    load_sensor.o(.text) refers to cmd_process.o(.data) for current_screen_id
    load_sensor.o(.text) refers to load_sensor.o(.bss) for tmp
    load_sensor.o(.text) refers to load_sensor.o(.conststring) for .conststring
    load_sensor.o(.text) refers to basic.o(x$fpl$basic) for __aeabi_dneg
    load_sensor.o(.text) refers to deqf.o(x$fpl$deqf) for __aeabi_cdcmpeq
    load_sensor.o(.text) refers to f2d.o(x$fpl$f2d) for __aeabi_f2d
    load_sensor.o(.text) refers to tasks.o(.text) for vTaskSuspendAll
    load_sensor.o(.text) refers to rt_memclr_w.o(.text) for __aeabi_memclr4
    load_sensor.o(.text) refers to dleqf.o(x$fpl$dleqf) for __aeabi_cdcmple
    load_sensor.o(.text) refers to drleqf.o(x$fpl$drleqf) for __aeabi_cdrcmple
    load_sensor.o(.text) refers to daddsub_clz.o(x$fpl$drsb) for __aeabi_drsub
    load_sensor.o(.text) refers to user_task.o(.text) for vUsart_report_msg
    load_sensor.o(.text) refers to heap_5.o(.text) for pvPortMalloc
    load_sensor.o(.text) refers to d2f.o(x$fpl$d2f) for __aeabi_d2f
    load_sensor.o(.text) refers to fabs.o(i.__hardfp_fabs) for __hardfp_fabs
    load_sensor.o(.text) refers to ff.o(.text) for f_open
    my_spi.o(.text) refers to stm32f4xx_gpio.o(.text) for GPIO_SetBits
    my_spi.o(.text) refers to stm32f4xx_rcc.o(.text) for RCC_AHB1PeriphClockCmd
    timer.o(.text) refers to stm32f4xx_rcc.o(.text) for RCC_APB1PeriphClockCmd
    timer.o(.text) refers to stm32f4xx_tim.o(.text) for TIM_TimeBaseInit
    timer.o(.text) refers to misc.o(.text) for NVIC_Init
    can.o(.text) refers to stm32f4xx_rcc.o(.text) for RCC_AHB1PeriphClockCmd
    can.o(.text) refers to stm32f4xx_gpio.o(.text) for GPIO_Init
    can.o(.text) refers to stm32f4xx_can.o(.text) for CAN_Init
    can.o(.text) refers to misc.o(.text) for NVIC_Init
    can.o(.text) refers to queue.o(.text) for xQueueGenericSendFromISR
    can.o(.text) refers to user_task.o(.data) for canRecQueue_Handler
    24cxx.o(.text) refers to _printf_percent.o(.ARM.Collect$$_printf_percent$$00000000) for _printf_percent
    24cxx.o(.text) refers to _printf_d.o(.ARM.Collect$$_printf_percent$$00000009) for _printf_d
    24cxx.o(.text) refers to _printf_dec.o(.text) for _printf_int_dec
    24cxx.o(.text) refers to myiic.o(.text) for IIC_Init
    24cxx.o(.text) refers to delay.o(.text) for delay_xms
    24cxx.o(.text) refers to rand.o(.emb_text) for rand
    24cxx.o(.text) refers to __2printf.o(.text) for __2printf
    24cxx.o(.text) refers to tasks.o(.text) for vTaskSuspendAll
    24cxx.o(.text) refers to 24cxx.o(.data) for pEdata
    myiic.o(.text) refers to stm32f4xx_rcc.o(.text) for RCC_AHB1PeriphClockCmd
    myiic.o(.text) refers to stm32f4xx_gpio.o(.text) for GPIO_Init
    myiic.o(.text) refers to delay.o(.text) for delay_us
    myiic.o(.text) refers to __2printf.o(.text) for __2printf
    event_groups.o(.text) refers to _printf_percent.o(.ARM.Collect$$_printf_percent$$00000000) for _printf_percent
    event_groups.o(.text) refers to _printf_d.o(.ARM.Collect$$_printf_percent$$00000009) for _printf_d
    event_groups.o(.text) refers to _printf_s.o(.ARM.Collect$$_printf_percent$$00000014) for _printf_s
    event_groups.o(.text) refers to _printf_dec.o(.text) for _printf_int_dec
    event_groups.o(.text) refers to _printf_str.o(.text) for _printf_str
    event_groups.o(.text) refers to heap_5.o(.text) for pvPortMalloc
    event_groups.o(.text) refers to list.o(.text) for vListInitialise
    event_groups.o(.text) refers to __2printf.o(.text) for __2printf
    event_groups.o(.text) refers to tasks.o(.text) for vTaskSuspendAll
    event_groups.o(.text) refers to port.o(.text) for vPortEnterCritical
    event_groups.o(.text) refers to timers.o(.text) for xTimerPendFunctionCallFromISR
    queue.o(.text) refers to _printf_percent.o(.ARM.Collect$$_printf_percent$$00000000) for _printf_percent
    queue.o(.text) refers to _printf_d.o(.ARM.Collect$$_printf_percent$$00000009) for _printf_d
    queue.o(.text) refers to _printf_s.o(.ARM.Collect$$_printf_percent$$00000014) for _printf_s
    queue.o(.text) refers to _printf_dec.o(.text) for _printf_int_dec
    queue.o(.text) refers to _printf_str.o(.text) for _printf_str
    queue.o(.text) refers to __2printf.o(.text) for __2printf
    queue.o(.text) refers to port.o(.text) for vPortEnterCritical
    queue.o(.text) refers to tasks.o(.text) for xTaskRemoveFromEventList
    queue.o(.text) refers to list.o(.text) for vListInitialise
    queue.o(.text) refers to heap_5.o(.text) for pvPortMalloc
    queue.o(.text) refers to rt_memcpy_v6.o(.text) for __aeabi_memcpy
    queue.o(.text) refers to queue.o(.bss) for xQueueRegistry
    tasks.o(.text) refers to _printf_percent.o(.ARM.Collect$$_printf_percent$$00000000) for _printf_percent
    tasks.o(.text) refers to _printf_d.o(.ARM.Collect$$_printf_percent$$00000009) for _printf_d
    tasks.o(.text) refers to _printf_s.o(.ARM.Collect$$_printf_percent$$00000014) for _printf_s
    tasks.o(.text) refers to _printf_dec.o(.text) for _printf_int_dec
    tasks.o(.text) refers to _printf_str.o(.text) for _printf_str
    tasks.o(.text) refers to _printf_u.o(.ARM.Collect$$_printf_percent$$0000000A) for _printf_u
    tasks.o(.text) refers to _printf_c.o(.ARM.Collect$$_printf_percent$$00000013) for _printf_c
    tasks.o(.text) refers to list.o(.text) for vListInitialise
    tasks.o(.text) refers to port.o(.text) for vPortEnterCritical
    tasks.o(.text) refers to __2printf.o(.text) for __2printf
    tasks.o(.text) refers to aeabi_memset.o(.text) for __aeabi_memset
    tasks.o(.text) refers to heap_5.o(.text) for pvPortMalloc
    tasks.o(.text) refers to tasks.o(.bss) for pxReadyTasksLists
    tasks.o(.text) refers to tasks.o(.data) for pxDelayedTaskList
    tasks.o(.text) refers to timers.o(.text) for xTimerCreateTimerTask
    tasks.o(.text) refers to strcpy.o(.text) for strcpy
    tasks.o(.text) refers to strlen.o(.text) for strlen
    tasks.o(.text) refers to __2sprintf.o(.text) for __2sprintf
    timers.o(.text) refers to _printf_percent.o(.ARM.Collect$$_printf_percent$$00000000) for _printf_percent
    timers.o(.text) refers to _printf_d.o(.ARM.Collect$$_printf_percent$$00000009) for _printf_d
    timers.o(.text) refers to _printf_s.o(.ARM.Collect$$_printf_percent$$00000014) for _printf_s
    timers.o(.text) refers to _printf_dec.o(.text) for _printf_int_dec
    timers.o(.text) refers to _printf_str.o(.text) for _printf_str
    timers.o(.text) refers to list.o(.text) for vListInsert
    timers.o(.text) refers to __2printf.o(.text) for __2printf
    timers.o(.text) refers to tasks.o(.text) for xTaskGetSchedulerState
    timers.o(.text) refers to queue.o(.text) for xQueueGenericSend
    timers.o(.text) refers to heap_5.o(.text) for vPortFree
    timers.o(.text) refers to port.o(.text) for vPortEnterCritical
    timers.o(.text) refers to timers.o(.data) for pxOverflowTimerList
    timers.o(.text) refers to timers.o(.bss) for xActiveTimerList1
    port.o(.emb_text) refers to tasks.o(.text) for vTaskSwitchContext
    port.o(.emb_text) refers to tasks.o(.data) for pxCurrentTCB
    port.o(.text) refers to _printf_percent.o(.ARM.Collect$$_printf_percent$$00000000) for _printf_percent
    port.o(.text) refers to _printf_d.o(.ARM.Collect$$_printf_percent$$00000009) for _printf_d
    port.o(.text) refers to _printf_s.o(.ARM.Collect$$_printf_percent$$00000014) for _printf_s
    port.o(.text) refers to _printf_dec.o(.text) for _printf_int_dec
    port.o(.text) refers to _printf_str.o(.text) for _printf_str
    port.o(.text) refers to __2printf.o(.text) for __2printf
    port.o(.text) refers to port.o(.emb_text) for __asm___6_port_c_39a90d8d__prvEnableVFP
    port.o(.text) refers to tasks.o(.text) for xTaskIncrementTick
    port.o(.text) refers to port.o(.data) for uxCriticalNesting
    port.o(.text) refers to system_stm32f4xx.o(.data) for SystemCoreClock
    heap_5.o(.text) refers to _printf_percent.o(.ARM.Collect$$_printf_percent$$00000000) for _printf_percent
    heap_5.o(.text) refers to _printf_d.o(.ARM.Collect$$_printf_percent$$00000009) for _printf_d
    heap_5.o(.text) refers to _printf_s.o(.ARM.Collect$$_printf_percent$$00000014) for _printf_s
    heap_5.o(.text) refers to _printf_dec.o(.text) for _printf_int_dec
    heap_5.o(.text) refers to _printf_str.o(.text) for _printf_str
    heap_5.o(.text) refers to __2printf.o(.text) for __2printf
    heap_5.o(.text) refers to tasks.o(.text) for vTaskSuspendAll
    heap_5.o(.text) refers to heap_5.o(.data) for xStart
    diskio.o(.text) refers to _printf_percent.o(.ARM.Collect$$_printf_percent$$00000000) for _printf_percent
    diskio.o(.text) refers to _printf_d.o(.ARM.Collect$$_printf_percent$$00000009) for _printf_d
    diskio.o(.text) refers to _printf_dec.o(.text) for _printf_int_dec
    diskio.o(.text) refers to sdio_sdcard.o(.text) for SD_Init
    diskio.o(.text) refers to __2printf.o(.text) for __2printf
    diskio.o(.text) refers to llsdiv.o(.text) for __aeabi_ldivmod
    diskio.o(.text) refers to heap_5.o(.text) for pvPortMalloc
    diskio.o(.text) refers to user_task.o(.data) for eDevice_Status
    diskio.o(.text) refers to sdio_sdcard.o(.bss) for SDCardInfo
    diskio.o(.text) refers to cmd_process.o(.bss) for sRtc_time
    ff.o(.text) refers to ffunicode.o(.text) for ff_oem2uni
    ff.o(.text) refers to ffsystem.o(.text) for ff_req_grant
    ff.o(.text) refers to diskio.o(.text) for disk_write
    ff.o(.text) refers to ff.o(.constdata) for DbcTbl
    ff.o(.text) refers to ff.o(.data) for FatFs
    ffsystem.o(.text) refers to queue.o(.text) for xQueueCreateMutex
    ffunicode.o(.text) refers to ffunicode.o(.constdata) for uni2oem936
    exfuns.o(.text) refers to _printf_percent.o(.ARM.Collect$$_printf_percent$$00000000) for _printf_percent
    exfuns.o(.text) refers to _printf_d.o(.ARM.Collect$$_printf_percent$$00000009) for _printf_d
    exfuns.o(.text) refers to _printf_s.o(.ARM.Collect$$_printf_percent$$00000014) for _printf_s
    exfuns.o(.text) refers to _printf_dec.o(.text) for _printf_int_dec
    exfuns.o(.text) refers to _printf_str.o(.text) for _printf_str
    exfuns.o(.text) refers to heap_5.o(.text) for pvPortMalloc
    exfuns.o(.text) refers to ff.o(.text) for f_mount
    exfuns.o(.text) refers to __2printf.o(.text) for __2printf
    exfuns.o(.text) refers to exfuns.o(.data) for fs
    sdio_sdcard.o(.text) refers to stm32f4xx_sdio.o(.text) for SDIO_GetFlagStatus
    sdio_sdcard.o(.text) refers to sdio_sdcard.o(.data) for DeviceMode
    sdio_sdcard.o(.text) refers to sdio_sdcard.o(.bss) for SDIO_CmdInitStructure
    sdio_sdcard.o(.text) refers to stm32f4xx_rcc.o(.text) for RCC_AHB1PeriphClockCmd
    sdio_sdcard.o(.text) refers to stm32f4xx_gpio.o(.text) for GPIO_Init
    sdio_sdcard.o(.text) refers to misc.o(.text) for NVIC_Init
    sdio_sdcard.o(.text) refers to stm32f4xx_dma.o(.text) for DMA_GetCmdStatus
    sdio_sdcard.o(.text) refers to sys.o(.emb_text) for INTX_DISABLE
    sdio_sdcard.o(.text) refers to rt_memcpy_v6.o(.text) for __aeabi_memcpy
    stm32f4xx_gpio.o(.text) refers to stm32f4xx_rcc.o(.text) for RCC_AHB1PeriphResetCmd
    stm32f4xx_rcc.o(.text) refers to stm32f4xx_rcc.o(.data) for APBAHBPrescTable
    stm32f4xx_syscfg.o(.text) refers to stm32f4xx_rcc.o(.text) for RCC_APB2PeriphResetCmd
    stm32f4xx_usart.o(.text) refers to stm32f4xx_rcc.o(.text) for RCC_APB2PeriphResetCmd
    stm32f4xx_tim.o(.text) refers to stm32f4xx_rcc.o(.text) for RCC_APB2PeriphResetCmd
    stm32f4xx_fsmc.o(.text) refers to stm32f4xx_fsmc.o(.constdata) for FSMC_DefaultTimingStruct
    stm32f4xx_sdio.o(.text) refers to stm32f4xx_rcc.o(.text) for RCC_APB2PeriphResetCmd
    stm32f4xx_can.o(.text) refers to stm32f4xx_rcc.o(.text) for RCC_APB1PeriphResetCmd
    stm32f4xx_i2c.o(.text) refers to stm32f4xx_rcc.o(.text) for RCC_APB1PeriphResetCmd
    delay.o(.text) refers to tasks.o(.text) for xTaskGetSchedulerState
    delay.o(.text) refers to port.o(.text) for xPortSysTickHandler
    delay.o(.text) refers to misc.o(.text) for SysTick_CLKSourceConfig
    delay.o(.text) refers to delay.o(.data) for fac_us
    usart.o(.rev16_text) refers (Special) to use_no_semi_2.o(.text) for __use_no_semihosting
    usart.o(.revsh_text) refers (Special) to use_no_semi_2.o(.text) for __use_no_semihosting
    usart.o(.text) refers (Special) to use_no_semi_2.o(.text) for __use_no_semihosting
    usart.o(.text) refers to _printf_percent.o(.ARM.Collect$$_printf_percent$$00000000) for _printf_percent
    usart.o(.text) refers to _printf_d.o(.ARM.Collect$$_printf_percent$$00000009) for _printf_d
    usart.o(.text) refers to _printf_dec.o(.text) for _printf_int_dec
    usart.o(.text) refers to _printf_c.o(.ARM.Collect$$_printf_percent$$00000013) for _printf_c
    usart.o(.text) refers to _printf_s.o(.ARM.Collect$$_printf_percent$$00000014) for _printf_s
    usart.o(.text) refers to _printf_str.o(.text) for _printf_str
    usart.o(.text) refers to stm32f4xx_rcc.o(.text) for RCC_AHB1PeriphClockCmd
    usart.o(.text) refers to stm32f4xx_gpio.o(.text) for GPIO_PinAFConfig
    usart.o(.text) refers to stm32f4xx_usart.o(.text) for USART_Init
    usart.o(.text) refers to misc.o(.text) for NVIC_Init
    usart.o(.text) refers to uart_rfid.o(.text) for rfid_queue_push
    usart.o(.text) refers to __2sprintf.o(.text) for __2sprintf
    usart.o(.data) refers (Special) to use_no_semi_2.o(.text) for __use_no_semihosting
    startup_stm32f40_41xxx.o(STACK) refers (Special) to heapauxi.o(.text) for __use_two_region_memory
    startup_stm32f40_41xxx.o(HEAP) refers (Special) to heapauxi.o(.text) for __use_two_region_memory
    startup_stm32f40_41xxx.o(RESET) refers (Special) to heapauxi.o(.text) for __use_two_region_memory
    startup_stm32f40_41xxx.o(RESET) refers to startup_stm32f40_41xxx.o(STACK) for __initial_sp
    startup_stm32f40_41xxx.o(RESET) refers to startup_stm32f40_41xxx.o(.text) for Reset_Handler
    startup_stm32f40_41xxx.o(RESET) refers to stm32f4xx_it.o(.text) for NMI_Handler
    startup_stm32f40_41xxx.o(RESET) refers to port.o(.emb_text) for SVC_Handler
    startup_stm32f40_41xxx.o(RESET) refers to delay.o(.text) for SysTick_Handler
    startup_stm32f40_41xxx.o(RESET) refers to hardcontrol.o(.text) for EXTI4_IRQHandler
    startup_stm32f40_41xxx.o(RESET) refers to can.o(.text) for CAN1_RX0_IRQHandler
    startup_stm32f40_41xxx.o(RESET) refers to hmi_user_uart.o(.text) for USART1_IRQHandler
    startup_stm32f40_41xxx.o(RESET) refers to usart.o(.text) for USART2_IRQHandler
    startup_stm32f40_41xxx.o(RESET) refers to ads126x.o(.text) for EXTI15_10_IRQHandler
    startup_stm32f40_41xxx.o(RESET) refers to sdio_sdcard.o(.text) for SDIO_IRQHandler
    startup_stm32f40_41xxx.o(.text) refers (Special) to heapauxi.o(.text) for __use_two_region_memory
    startup_stm32f40_41xxx.o(.text) refers to system_stm32f4xx.o(.text) for SystemInit
    startup_stm32f40_41xxx.o(.text) refers to __main.o(!!!main) for __main
    startup_stm32f40_41xxx.o(.text) refers to startup_stm32f40_41xxx.o(HEAP) for Heap_Mem
    startup_stm32f40_41xxx.o(.text) refers to startup_stm32f40_41xxx.o(STACK) for Stack_Mem
    sram.o(.text) refers to stm32f4xx_rcc.o(.text) for RCC_AHB1PeriphClockCmd
    sram.o(.text) refers to stm32f4xx_gpio.o(.text) for GPIO_Init
    sram.o(.text) refers to stm32f4xx_fsmc.o(.text) for FSMC_NORSRAMInit
    use_no_semi_2.o(.text) refers (Special) to use_no_semi.o(.text) for __use_no_semihosting_swi
    malloc.o(.text) refers (Special) to hguard.o(.text) for __heap$guard
    malloc.o(.text) refers (Special) to init_alloc.o(.text) for _init_alloc
    malloc.o(.text) refers to rt_heap_descriptor_intlibspace.o(.text) for __rt_heap_descriptor
    malloc.o(.text) refers to heapstubs.o(.text) for __Heap_Alloc
    free.o(.text) refers (Special) to hguard.o(.text) for __heap$guard
    free.o(.text) refers to rt_heap_descriptor_intlibspace.o(.text) for __rt_heap_descriptor
    free.o(.text) refers to heapstubs.o(.text) for __Heap_Free
    h1_alloc.o(.text) refers (Special) to h1_init.o(.text) for __Heap_Initialize
    h1_alloc.o(.text) refers to rt_heap_descriptor_intlibspace.o(.text) for __rt_heap_descriptor
    h1_alloc.o(.text) refers to init_alloc.o(.text) for __Heap_Full
    h1_free.o(.text) refers to rt_heap_descriptor_intlibspace.o(.text) for __rt_heap_descriptor
    h1_alloc_mt.o(.text) refers (Special) to h1_init.o(.text) for __Heap_Initialize
    h1_alloc_mt.o(.text) refers to init_alloc.o(.text) for __Heap_Full
    h1_alloc_mt.o(.text) refers to rt_heap_descriptor_intlibspace.o(.text) for __rt_heap_descriptor
    h1_free_mt.o(.text) refers to rt_heap_descriptor_intlibspace.o(.text) for __rt_heap_descriptor
    heap2.o(i._FDIterate) refers to heap2.o(.conststring) for .conststring
    heap2.o(i.___Heap_ProvideMemory$realtime) refers to fdtree.o(i._FDTree_Delete) for _FDTree_Delete
    heap2.o(i.___Heap_ProvideMemory$realtime) refers to fdtree.o(i._FDTree_Insert) for _FDTree_Insert
    heap2.o(i.___Heap_Stats$realtime) refers to heap2.o(i._Heap2_StatsIterate) for _Heap2_StatsIterate
    heap2.o(i.___Heap_Valid$realtime) refers to heap2.o(i._FDIterate) for _FDIterate
    heap2.o(i.___Heap_Valid$realtime) refers to heap2.o(.conststring) for .conststring
    heap2.o(i._free$realtime) refers to rt_heap_descriptor_intlibspace.o(.text) for __rt_heap_descriptor
    heap2.o(i._free$realtime) refers to fdtree.o(i._FDTree_Delete) for _FDTree_Delete
    heap2.o(i._free$realtime) refers to fdtree.o(i._FDTree_Insert) for _FDTree_Insert
    heap2.o(i._malloc$realtime) refers to rt_heap_descriptor_intlibspace.o(.text) for __rt_heap_descriptor
    heap2.o(i._malloc$realtime) refers to fdtree.o(i._FDTree_FindFirst) for _FDTree_FindFirst
    heap2.o(i._malloc$realtime) refers to init_alloc.o(.text) for __Heap_Full
    heap2.o(i._malloc$realtime) refers to fdtree.o(i._FDTree_RemoveNode) for _FDTree_RemoveNode
    heap2.o(i._malloc$realtime) refers to fdtree.o(i._FDTree_Insert) for _FDTree_Insert
    heap2.o(i._posix_memalign$realtime) refers to rt_heap_descriptor_intlibspace.o(.text) for __rt_heap_descriptor
    heap2.o(i._posix_memalign$realtime) refers to fdtree.o(i._FDTree_FindFirst) for _FDTree_FindFirst
    heap2.o(i._posix_memalign$realtime) refers to init_alloc.o(.text) for __Heap_Full
    heap2.o(i._posix_memalign$realtime) refers to fdtree.o(i._FDTree_RemoveNode) for _FDTree_RemoveNode
    heap2.o(i._posix_memalign$realtime) refers to fdtree.o(i._FDTree_Insert) for _FDTree_Insert
    heap2.o(i._realloc$realtime) refers to rt_heap_descriptor_intlibspace.o(.text) for __rt_heap_descriptor
    heap2.o(i._realloc$realtime) refers to fdtree.o(i._FDTree_Insert) for _FDTree_Insert
    heap2.o(i._realloc$realtime) refers to h1_free.o(.text) for free
    heap2.o(i._realloc$realtime) refers to h1_alloc.o(.text) for malloc
    heap2.o(i._realloc$realtime) refers to fdtree.o(i._FDTree_Delete) for _FDTree_Delete
    heap2.o(i._realloc$realtime) refers to rt_memcpy_w.o(.text) for __aeabi_memcpy4
    heap2mt.o(i._FDIterate) refers to heap2mt.o(.conststring) for .conststring
    heap2mt.o(i.___Heap_Initialize$realtime$concurrent) refers to mutex_dummy.o(.text) for _mutex_initialize
    heap2mt.o(i.___Heap_ProvideMemory$realtime$concurrent) refers to fdtree.o(i._FDTree_Delete) for _FDTree_Delete
    heap2mt.o(i.___Heap_ProvideMemory$realtime$concurrent) refers to fdtree.o(i._FDTree_Insert) for _FDTree_Insert
    heap2mt.o(i.___Heap_Stats$realtime$concurrent) refers to heap2mt.o(i._Heap2_StatsIterate) for _Heap2_StatsIterate
    heap2mt.o(i.___Heap_Valid$realtime$concurrent) refers to heap2mt.o(i._FDIterate) for _FDIterate
    heap2mt.o(i.___Heap_Valid$realtime$concurrent) refers to heap2mt.o(.conststring) for .conststring
    heap2mt.o(i._free$realtime$concurrent) refers to rt_heap_descriptor_intlibspace.o(.text) for __rt_heap_descriptor
    heap2mt.o(i._free$realtime$concurrent) refers to fdtree.o(i._FDTree_Delete) for _FDTree_Delete
    heap2mt.o(i._free$realtime$concurrent) refers to fdtree.o(i._FDTree_Insert) for _FDTree_Insert
    heap2mt.o(i._malloc$realtime$concurrent) refers to rt_heap_descriptor_intlibspace.o(.text) for __rt_heap_descriptor
    heap2mt.o(i._malloc$realtime$concurrent) refers to fdtree.o(i._FDTree_FindFirst) for _FDTree_FindFirst
    heap2mt.o(i._malloc$realtime$concurrent) refers to init_alloc.o(.text) for __Heap_Full
    heap2mt.o(i._malloc$realtime$concurrent) refers to fdtree.o(i._FDTree_RemoveNode) for _FDTree_RemoveNode
    heap2mt.o(i._malloc$realtime$concurrent) refers to fdtree.o(i._FDTree_Insert) for _FDTree_Insert
    heap2mt.o(i._posix_memalign$realtime$concurrent) refers to rt_heap_descriptor_intlibspace.o(.text) for __rt_heap_descriptor
    heap2mt.o(i._posix_memalign$realtime$concurrent) refers to fdtree.o(i._FDTree_FindFirst) for _FDTree_FindFirst
    heap2mt.o(i._posix_memalign$realtime$concurrent) refers to init_alloc.o(.text) for __Heap_Full
    heap2mt.o(i._posix_memalign$realtime$concurrent) refers to fdtree.o(i._FDTree_RemoveNode) for _FDTree_RemoveNode
    heap2mt.o(i._posix_memalign$realtime$concurrent) refers to fdtree.o(i._FDTree_Insert) for _FDTree_Insert
    heap2mt.o(i._realloc$realtime$concurrent) refers to rt_heap_descriptor_intlibspace.o(.text) for __rt_heap_descriptor
    heap2mt.o(i._realloc$realtime$concurrent) refers to fdtree.o(i._FDTree_Insert) for _FDTree_Insert
    heap2mt.o(i._realloc$realtime$concurrent) refers to h1_free.o(.text) for free
    heap2mt.o(i._realloc$realtime$concurrent) refers to h1_alloc.o(.text) for malloc
    heap2mt.o(i._realloc$realtime$concurrent) refers to fdtree.o(i._FDTree_Delete) for _FDTree_Delete
    heap2mt.o(i._realloc$realtime$concurrent) refers to rt_memcpy_w.o(.text) for __aeabi_memcpy4
    llsdiv.o(.text) refers to lludivv7m.o(.text) for __aeabi_uldivmod
    tolower.o(.text) refers to rt_ctype_table.o(.text) for __rt_ctype_table
    vsnprintf.o(.text) refers (Special) to _printf_a.o(.ARM.Collect$$_printf_percent$$00000006) for _printf_a
    vsnprintf.o(.text) refers (Special) to _printf_c.o(.ARM.Collect$$_printf_percent$$00000013) for _printf_c
    vsnprintf.o(.text) refers (Special) to _printf_charcount.o(.text) for _printf_charcount
    vsnprintf.o(.text) refers (Special) to _printf_d.o(.ARM.Collect$$_printf_percent$$00000009) for _printf_d
    vsnprintf.o(.text) refers (Special) to _printf_e.o(.ARM.Collect$$_printf_percent$$00000004) for _printf_e
    vsnprintf.o(.text) refers (Special) to _printf_f.o(.ARM.Collect$$_printf_percent$$00000003) for _printf_f
    vsnprintf.o(.text) refers (Special) to printf1.o(x$fpl$printf1) for _printf_fp_dec
    vsnprintf.o(.text) refers (Special) to printf2.o(x$fpl$printf2) for _printf_fp_hex
    vsnprintf.o(.text) refers (Special) to _printf_g.o(.ARM.Collect$$_printf_percent$$00000005) for _printf_g
    vsnprintf.o(.text) refers (Special) to _printf_i.o(.ARM.Collect$$_printf_percent$$00000008) for _printf_i
    vsnprintf.o(.text) refers (Special) to _printf_dec.o(.text) for _printf_int_dec
    vsnprintf.o(.text) refers (Special) to _printf_l.o(.ARM.Collect$$_printf_percent$$00000012) for _printf_l
    vsnprintf.o(.text) refers (Special) to _printf_lc.o(.ARM.Collect$$_printf_percent$$00000015) for _printf_lc
    vsnprintf.o(.text) refers (Special) to _printf_ll.o(.ARM.Collect$$_printf_percent$$00000007) for _printf_ll
    vsnprintf.o(.text) refers (Special) to _printf_lld.o(.ARM.Collect$$_printf_percent$$0000000E) for _printf_lld
    vsnprintf.o(.text) refers (Special) to _printf_lli.o(.ARM.Collect$$_printf_percent$$0000000D) for _printf_lli
    vsnprintf.o(.text) refers (Special) to _printf_llo.o(.ARM.Collect$$_printf_percent$$00000010) for _printf_llo
    vsnprintf.o(.text) refers (Special) to _printf_llu.o(.ARM.Collect$$_printf_percent$$0000000F) for _printf_llu
    vsnprintf.o(.text) refers (Special) to _printf_llx.o(.ARM.Collect$$_printf_percent$$00000011) for _printf_llx
    vsnprintf.o(.text) refers (Special) to _printf_longlong_dec.o(.text) for _printf_longlong_dec
    vsnprintf.o(.text) refers (Special) to _printf_hex_int_ll_ptr.o(.text) for _printf_longlong_hex
    vsnprintf.o(.text) refers (Special) to _printf_oct_int_ll.o(.text) for _printf_longlong_oct
    vsnprintf.o(.text) refers (Special) to _printf_ls.o(.ARM.Collect$$_printf_percent$$00000016) for _printf_ls
    vsnprintf.o(.text) refers (Special) to _printf_n.o(.ARM.Collect$$_printf_percent$$00000001) for _printf_n
    vsnprintf.o(.text) refers (Special) to _printf_o.o(.ARM.Collect$$_printf_percent$$0000000B) for _printf_o
    vsnprintf.o(.text) refers (Special) to _printf_p.o(.ARM.Collect$$_printf_percent$$00000002) for _printf_p
    vsnprintf.o(.text) refers (Special) to _printf_percent.o(.ARM.Collect$$_printf_percent$$00000000) for _printf_percent
    vsnprintf.o(.text) refers (Special) to _printf_pad.o(.text) for _printf_post_padding
    vsnprintf.o(.text) refers (Special) to _printf_s.o(.ARM.Collect$$_printf_percent$$00000014) for _printf_s
    vsnprintf.o(.text) refers (Special) to _printf_str.o(.text) for _printf_str
    vsnprintf.o(.text) refers (Special) to _printf_truncate.o(.text) for _printf_truncate_signed
    vsnprintf.o(.text) refers (Special) to _printf_u.o(.ARM.Collect$$_printf_percent$$0000000A) for _printf_u
    vsnprintf.o(.text) refers (Special) to _printf_wctomb.o(.text) for _printf_wctomb
    vsnprintf.o(.text) refers (Special) to _printf_x.o(.ARM.Collect$$_printf_percent$$0000000C) for _printf_x
    vsnprintf.o(.text) refers to _printf_char_common.o(.text) for _printf_char_common
    vsnprintf.o(.text) refers to _sputc.o(.text) for _sputc
    vsnprintf.o(.text) refers to _snputc.o(.text) for _snputc
    __2printf.o(.text) refers to _printf_char_file.o(.text) for _printf_char_file
    __2printf.o(.text) refers to usart.o(.data) for __stdout
    __2sprintf.o(.text) refers to _printf_char_common.o(.text) for _printf_char_common
    __2sprintf.o(.text) refers to _sputc.o(.text) for _sputc
    noretval__2printf.o(.text) refers to _printf_char_file.o(.text) for _printf_char_file
    noretval__2printf.o(.text) refers to usart.o(.data) for __stdout
    noretval__2sprintf.o(.text) refers to _printf_char_common.o(.text) for _printf_char_common
    noretval__2sprintf.o(.text) refers to _sputc.o(.text) for _sputc
    __printf.o(.text) refers to _printf_percent.o(.ARM.Collect$$_printf_percent$$00000000) for _printf_percent
    _printf_str.o(.text) refers (Special) to _printf_char.o(.text) for _printf_cs_common
    _printf_str.o(.text) refers (Weak) to _printf_pad.o(.text) for _printf_pre_padding
    _printf_str.o(.text) refers (Weak) to _printf_pad.o(.text) for _printf_post_padding
    _printf_dec.o(.text) refers (Weak) to _printf_truncate.o(.text) for _printf_truncate_signed
    _printf_dec.o(.text) refers (Weak) to _printf_truncate.o(.text) for _printf_truncate_unsigned
    _printf_dec.o(.text) refers to _printf_intcommon.o(.text) for _printf_int_common
    _printf_hex_ll.o(.text) refers to _printf_intcommon.o(.text) for _printf_int_common
    _printf_hex_ll.o(.text) refers to _printf_hex_ll.o(.constdata) for .constdata
    _printf_hex_int.o(.text) refers (Weak) to _printf_truncate.o(.text) for _printf_truncate_unsigned
    _printf_hex_int.o(.text) refers to _printf_intcommon.o(.text) for _printf_int_common
    _printf_hex_int.o(.text) refers to _printf_hex_int.o(.constdata) for .constdata
    _printf_hex_int_ll.o(.text) refers to _printf_intcommon.o(.text) for _printf_int_common
    _printf_hex_int_ll.o(.text) refers (Weak) to _printf_truncate.o(.text) for _printf_truncate_unsigned
    _printf_hex_int_ll.o(.text) refers to _printf_hex_int_ll.o(.constdata) for .constdata
    _printf_hex_ptr.o(.text) refers to _printf_intcommon.o(.text) for _printf_int_common
    _printf_hex_ptr.o(.text) refers to _printf_hex_ptr.o(.constdata) for .constdata
    _printf_hex_int_ptr.o(.text) refers to _printf_intcommon.o(.text) for _printf_int_common
    _printf_hex_int_ptr.o(.text) refers (Weak) to _printf_truncate.o(.text) for _printf_truncate_unsigned
    _printf_hex_int_ptr.o(.text) refers to _printf_hex_int_ptr.o(.constdata) for .constdata
    _printf_hex_ll_ptr.o(.text) refers to _printf_intcommon.o(.text) for _printf_int_common
    _printf_hex_ll_ptr.o(.text) refers to _printf_hex_ll_ptr.o(.constdata) for .constdata
    _printf_hex_int_ll_ptr.o(.text) refers to _printf_intcommon.o(.text) for _printf_int_common
    _printf_hex_int_ll_ptr.o(.text) refers (Weak) to _printf_truncate.o(.text) for _printf_truncate_unsigned
    _printf_hex_int_ll_ptr.o(.text) refers to _printf_hex_int_ll_ptr.o(.constdata) for .constdata
    __printf_flags.o(.text) refers to _printf_percent.o(.ARM.Collect$$_printf_percent$$00000000) for _printf_percent
    __printf_flags.o(.text) refers to __printf_flags.o(.constdata) for .constdata
    __printf_ss.o(.text) refers to _printf_percent.o(.ARM.Collect$$_printf_percent$$00000000) for _printf_percent
    __printf_flags_ss.o(.text) refers to _printf_percent.o(.ARM.Collect$$_printf_percent$$00000000) for _printf_percent
    __printf_flags_ss.o(.text) refers to __printf_flags_ss.o(.constdata) for .constdata
    __printf_wp.o(.text) refers to __printf_wp.o(i._is_digit) for _is_digit
    __printf_wp.o(.text) refers to _printf_percent.o(.ARM.Collect$$_printf_percent$$00000000) for _printf_percent
    __printf_flags_wp.o(.text) refers to __printf_wp.o(i._is_digit) for _is_digit
    __printf_flags_wp.o(.text) refers to _printf_percent.o(.ARM.Collect$$_printf_percent$$00000000) for _printf_percent
    __printf_flags_wp.o(.text) refers to __printf_flags_wp.o(.constdata) for .constdata
    __printf_ss_wp.o(.text) refers to __printf_wp.o(i._is_digit) for _is_digit
    __printf_ss_wp.o(.text) refers to _printf_percent.o(.ARM.Collect$$_printf_percent$$00000000) for _printf_percent
    __printf_flags_ss_wp.o(.text) refers to __printf_wp.o(i._is_digit) for _is_digit
    __printf_flags_ss_wp.o(.text) refers to _printf_percent.o(.ARM.Collect$$_printf_percent$$00000000) for _printf_percent
    __printf_flags_ss_wp.o(.text) refers to __printf_flags_ss_wp.o(.constdata) for .constdata
    _printf_c.o(.ARM.Collect$$_printf_percent$$00000013) refers (Weak) to _printf_char.o(.text) for _printf_char
    _printf_s.o(.ARM.Collect$$_printf_percent$$00000014) refers (Weak) to _printf_char.o(.text) for _printf_string
    _printf_x.o(.ARM.Collect$$_printf_percent$$0000000C) refers (Weak) to _printf_hex_int_ll_ptr.o(.text) for _printf_int_hex
    _printf_d.o(.ARM.Collect$$_printf_percent$$00000009) refers (Weak) to _printf_dec.o(.text) for _printf_int_dec
    _printf_u.o(.ARM.Collect$$_printf_percent$$0000000A) refers (Weak) to _printf_dec.o(.text) for _printf_int_dec
    _printf_f.o(.ARM.Collect$$_printf_percent$$00000003) refers (Weak) to printf1.o(x$fpl$printf1) for _printf_fp_dec
    _printf_e.o(.ARM.Collect$$_printf_percent$$00000004) refers (Weak) to printf1.o(x$fpl$printf1) for _printf_fp_dec
    _printf_percent.o(.ARM.Collect$$_printf_percent$$00000000) refers (Special) to _printf_percent_end.o(.ARM.Collect$$_printf_percent$$00000017) for _printf_percent_end
    __0sscanf.o(.text) refers to scanf_char.o(.text) for __vfscanf_char
    __0sscanf.o(.text) refers to _sgetc.o(.text) for _sgetc
    _scanf_int.o(.text) refers to _chval.o(.text) for _chval
    rand.o(.emb_text) refers (Special) to libinit2.o(.ARM.Collect$$libinit$$0000000D) for __rt_lib_init_rand_2
    rand.o(.emb_text) refers to rand.o(.text) for _rand_init
    rand.o(.emb_text) refers to rand.o(.bss) for _random_number_data
    rand.o(.text) refers (Special) to libinit2.o(.ARM.Collect$$libinit$$0000000D) for __rt_lib_init_rand_2
    rand.o(.text) refers to rand.o(.bss) for .bss
    rand.o(.bss) refers (Special) to libinit2.o(.ARM.Collect$$libinit$$0000000D) for __rt_lib_init_rand_2
    rt_memcpy_v6.o(.text) refers to rt_memcpy_w.o(.text) for __aeabi_memcpy4
    aeabi_memset.o(.text) refers to rt_memclr.o(.text) for _memset
    strncpy.o(.text) refers to rt_memclr.o(.text) for __aeabi_memclr
    __main.o(!!!main) refers to __rtentry.o(.ARM.Collect$$rtentry$$00000000) for __rt_entry
    basic.o(x$fpl$basic) refers (Special) to usenofp.o(x$fpl$usenofp) for __I$use$fp
    d2f.o(x$fpl$d2f) refers (Special) to usenofp.o(x$fpl$usenofp) for __I$use$fp
    d2f.o(x$fpl$d2f) refers to fretinf.o(x$fpl$fretinf) for __fpl_fretinf
    d2f.o(x$fpl$d2f) refers to dnaninf.o(x$fpl$dnaninf) for __fpl_dnaninf
    daddsub_clz.o(x$fpl$dadd) refers (Special) to usenofp.o(x$fpl$usenofp) for __I$use$fp
    daddsub_clz.o(x$fpl$dadd) refers to daddsub_clz.o(x$fpl$dsub) for _dsub1
    daddsub_clz.o(x$fpl$dadd) refers to dretinf.o(x$fpl$dretinf) for __fpl_dretinf
    daddsub_clz.o(x$fpl$dadd) refers to dnaninf.o(x$fpl$dnaninf) for __fpl_dnaninf
    daddsub_clz.o(x$fpl$drsb) refers (Special) to usenofp.o(x$fpl$usenofp) for __I$use$fp
    daddsub_clz.o(x$fpl$drsb) refers to daddsub_clz.o(x$fpl$dadd) for _dadd1
    daddsub_clz.o(x$fpl$drsb) refers to daddsub_clz.o(x$fpl$dsub) for _dsub1
    daddsub_clz.o(x$fpl$dsub) refers (Special) to usenofp.o(x$fpl$usenofp) for __I$use$fp
    daddsub_clz.o(x$fpl$dsub) refers to daddsub_clz.o(x$fpl$dadd) for _dadd1
    daddsub_clz.o(x$fpl$dsub) refers to dnaninf.o(x$fpl$dnaninf) for __fpl_dnaninf
    ddiv.o(x$fpl$drdiv) refers (Special) to usenofp.o(x$fpl$usenofp) for __I$use$fp
    ddiv.o(x$fpl$drdiv) refers to ddiv.o(x$fpl$ddiv) for ddiv_entry
    ddiv.o(x$fpl$ddiv) refers (Special) to usenofp.o(x$fpl$usenofp) for __I$use$fp
    ddiv.o(x$fpl$ddiv) refers to dretinf.o(x$fpl$dretinf) for __fpl_dretinf
    ddiv.o(x$fpl$ddiv) refers to dnaninf.o(x$fpl$dnaninf) for __fpl_dnaninf
    deqf.o(x$fpl$deqf) refers (Special) to usenofp.o(x$fpl$usenofp) for __I$use$fp
    deqf.o(x$fpl$deqf) refers to dnaninf.o(x$fpl$dnaninf) for __fpl_dnaninf
    deqf.o(x$fpl$deqf) refers to dcmpi.o(x$fpl$dcmpinf) for __fpl_dcmp_Inf
    dfix.o(x$fpl$dfix) refers (Special) to usenofp.o(x$fpl$usenofp) for __I$use$fp
    dfix.o(x$fpl$dfix) refers to dnaninf.o(x$fpl$dnaninf) for __fpl_dnaninf
    dfix.o(x$fpl$dfixr) refers (Special) to usenofp.o(x$fpl$usenofp) for __I$use$fp
    dfix.o(x$fpl$dfixr) refers to dnaninf.o(x$fpl$dnaninf) for __fpl_dnaninf
    dflt_clz.o(x$fpl$dfltu) refers (Special) to usenofp.o(x$fpl$usenofp) for __I$use$fp
    dflt_clz.o(x$fpl$dflt) refers (Special) to usenofp.o(x$fpl$usenofp) for __I$use$fp
    dflt_clz.o(x$fpl$dfltn) refers (Special) to usenofp.o(x$fpl$usenofp) for __I$use$fp
    dleqf.o(x$fpl$dleqf) refers (Special) to usenofp.o(x$fpl$usenofp) for __I$use$fp
    dleqf.o(x$fpl$dleqf) refers to dnaninf.o(x$fpl$dnaninf) for __fpl_dnaninf
    dleqf.o(x$fpl$dleqf) refers to dcmpi.o(x$fpl$dcmpinf) for __fpl_dcmp_Inf
    dmul.o(x$fpl$dmul) refers (Special) to usenofp.o(x$fpl$usenofp) for __I$use$fp
    dmul.o(x$fpl$dmul) refers to dretinf.o(x$fpl$dretinf) for __fpl_dretinf
    dmul.o(x$fpl$dmul) refers to dnaninf.o(x$fpl$dnaninf) for __fpl_dnaninf
    drleqf.o(x$fpl$drleqf) refers (Special) to usenofp.o(x$fpl$usenofp) for __I$use$fp
    drleqf.o(x$fpl$drleqf) refers to dleqf.o(x$fpl$dleqf) for __fpl_dcmple_InfNaN
    f2d.o(x$fpl$f2d) refers (Special) to usenofp.o(x$fpl$usenofp) for __I$use$fp
    f2d.o(x$fpl$f2d) refers to fnaninf.o(x$fpl$fnaninf) for __fpl_fnaninf
    f2d.o(x$fpl$f2d) refers to dretinf.o(x$fpl$dretinf) for __fpl_dretinf
    printf1.o(x$fpl$printf1) refers to _printf_fp_dec.o(.text) for _printf_fp_dec_real
    scanf1.o(x$fpl$scanf1) refers to scanf_fp.o(.text) for _scanf_really_real
    fabs.o(i.__hardfp_fabs) refers (Special) to usenofp.o(x$fpl$usenofp) for __I$use$fp
    fabs.o(i.__softfp_fabs) refers (Special) to usenofp.o(x$fpl$usenofp) for __I$use$fp
    fabs.o(i.fabs) refers (Special) to usenofp.o(x$fpl$usenofp) for __I$use$fp
    floor.o(i.__hardfp_floor) refers (Special) to usenofp.o(x$fpl$usenofp) for __I$use$fp
    floor.o(i.__hardfp_floor) refers to daddsub_clz.o(x$fpl$dadd) for __aeabi_dadd
    floor.o(i.__hardfp_floor) refers to drleqf.o(x$fpl$drleqf) for __aeabi_cdrcmple
    floor.o(i.__hardfp_floor) refers to daddsub_clz.o(x$fpl$drsb) for __aeabi_drsub
    floor.o(i.__softfp_floor) refers (Special) to usenofp.o(x$fpl$usenofp) for __I$use$fp
    floor.o(i.__softfp_floor) refers to floor.o(i.__hardfp_floor) for __hardfp_floor
    floor.o(i.floor) refers (Special) to usenofp.o(x$fpl$usenofp) for __I$use$fp
    floor.o(i.floor) refers to floor.o(i.__hardfp_floor) for __hardfp_floor
    log10.o(i.__hardfp_log10) refers (Special) to usenofp.o(x$fpl$usenofp) for __I$use$fp
    log10.o(i.__hardfp_log10) refers to dunder.o(i.__mathlib_dbl_infnan) for __mathlib_dbl_infnan
    log10.o(i.__hardfp_log10) refers to _rserrno.o(.text) for __set_errno
    log10.o(i.__hardfp_log10) refers to dunder.o(i.__mathlib_dbl_invalid) for __mathlib_dbl_invalid
    log10.o(i.__hardfp_log10) refers to dunder.o(i.__mathlib_dbl_divzero) for __mathlib_dbl_divzero
    log10.o(i.__hardfp_log10) refers to basic.o(x$fpl$basic) for __aeabi_dneg
    log10.o(i.__hardfp_log10) refers to dmul.o(x$fpl$dmul) for __aeabi_dmul
    log10.o(i.__hardfp_log10) refers to dflt_clz.o(x$fpl$dflt) for __aeabi_i2d
    log10.o(i.__hardfp_log10) refers to log.o(i.log) for log
    log10.o(i.__hardfp_log10) refers to daddsub_clz.o(x$fpl$dadd) for __aeabi_dadd
    log10.o(i.__softfp_log10) refers (Special) to usenofp.o(x$fpl$usenofp) for __I$use$fp
    log10.o(i.__softfp_log10) refers to log10.o(i.__hardfp_log10) for __hardfp_log10
    log10.o(i.log10) refers (Special) to usenofp.o(x$fpl$usenofp) for __I$use$fp
    log10.o(i.log10) refers to log10.o(i.__hardfp_log10) for __hardfp_log10
    log10_x.o(i.____hardfp_log10$lsc) refers (Special) to usenofp.o(x$fpl$usenofp) for __I$use$fp
    log10_x.o(i.____hardfp_log10$lsc) refers to dunder.o(i.__mathlib_dbl_infnan) for __mathlib_dbl_infnan
    log10_x.o(i.____hardfp_log10$lsc) refers to _rserrno.o(.text) for __set_errno
    log10_x.o(i.____hardfp_log10$lsc) refers to dmul.o(x$fpl$dmul) for __aeabi_dmul
    log10_x.o(i.____hardfp_log10$lsc) refers to dflt_clz.o(x$fpl$dflt) for __aeabi_i2d
    log10_x.o(i.____hardfp_log10$lsc) refers to log.o(i.log) for log
    log10_x.o(i.____hardfp_log10$lsc) refers to daddsub_clz.o(x$fpl$dadd) for __aeabi_dadd
    log10_x.o(i.____softfp_log10$lsc) refers (Special) to usenofp.o(x$fpl$usenofp) for __I$use$fp
    log10_x.o(i.____softfp_log10$lsc) refers to log10_x.o(i.____hardfp_log10$lsc) for ____hardfp_log10$lsc
    log10_x.o(i.__log10$lsc) refers (Special) to usenofp.o(x$fpl$usenofp) for __I$use$fp
    log10_x.o(i.__log10$lsc) refers to log10_x.o(i.____hardfp_log10$lsc) for ____hardfp_log10$lsc
    pow.o(i.__hardfp_pow) refers (Special) to usenofp.o(x$fpl$usenofp) for __I$use$fp
    pow.o(i.__hardfp_pow) refers to dunder.o(i.__mathlib_dbl_infnan2) for __mathlib_dbl_infnan2
    pow.o(i.__hardfp_pow) refers to _rserrno.o(.text) for __set_errno
    pow.o(i.__hardfp_pow) refers to dunder.o(i.__mathlib_dbl_divzero) for __mathlib_dbl_divzero
    pow.o(i.__hardfp_pow) refers to basic.o(x$fpl$basic) for __aeabi_dneg
    pow.o(i.__hardfp_pow) refers to dunder.o(i.__mathlib_dbl_overflow) for __mathlib_dbl_overflow
    pow.o(i.__hardfp_pow) refers to ddiv.o(x$fpl$ddiv) for __aeabi_ddiv
    pow.o(i.__hardfp_pow) refers to sqrt.o(i.sqrt) for sqrt
    pow.o(i.__hardfp_pow) refers to fabs.o(i.fabs) for fabs
    pow.o(i.__hardfp_pow) refers to dunder.o(i.__mathlib_dbl_invalid) for __mathlib_dbl_invalid
    pow.o(i.__hardfp_pow) refers to dunder.o(i.__mathlib_dbl_underflow) for __mathlib_dbl_underflow
    pow.o(i.__hardfp_pow) refers to daddsub_clz.o(x$fpl$dsub) for __aeabi_dsub
    pow.o(i.__hardfp_pow) refers to dmul.o(x$fpl$dmul) for __aeabi_dmul
    pow.o(i.__hardfp_pow) refers to daddsub_clz.o(x$fpl$drsb) for __aeabi_drsub
    pow.o(i.__hardfp_pow) refers to qnan.o(.constdata) for __mathlib_zero
    pow.o(i.__hardfp_pow) refers to daddsub_clz.o(x$fpl$dadd) for __aeabi_dadd
    pow.o(i.__hardfp_pow) refers to poly.o(i.__kernel_poly) for __kernel_poly
    pow.o(i.__hardfp_pow) refers to dflt_clz.o(x$fpl$dflt) for __aeabi_i2d
    pow.o(i.__hardfp_pow) refers to pow.o(.constdata) for .constdata
    pow.o(i.__hardfp_pow) refers to drleqf.o(x$fpl$drleqf) for __aeabi_cdrcmple
    pow.o(i.__hardfp_pow) refers to scalbn.o(x$fpl$scalbn) for __ARM_scalbn
    pow.o(i.__hardfp_pow) refers to fpclassify.o(i.__ARM_fpclassify) for __ARM_fpclassify
    pow.o(i.__softfp_pow) refers (Special) to usenofp.o(x$fpl$usenofp) for __I$use$fp
    pow.o(i.__softfp_pow) refers to pow.o(i.__hardfp_pow) for __hardfp_pow
    pow.o(i.pow) refers (Special) to usenofp.o(x$fpl$usenofp) for __I$use$fp
    pow.o(i.pow) refers to pow.o(i.__hardfp_pow) for __hardfp_pow
    pow.o(.constdata) refers (Special) to usenofp.o(x$fpl$usenofp) for __I$use$fp
    pow_x.o(i.____hardfp_pow$lsc) refers (Special) to usenofp.o(x$fpl$usenofp) for __I$use$fp
    pow_x.o(i.____hardfp_pow$lsc) refers to dunder.o(i.__mathlib_dbl_infnan2) for __mathlib_dbl_infnan2
    pow_x.o(i.____hardfp_pow$lsc) refers to _rserrno.o(.text) for __set_errno
    pow_x.o(i.____hardfp_pow$lsc) refers to basic.o(x$fpl$basic) for __aeabi_dneg
    pow_x.o(i.____hardfp_pow$lsc) refers to ddiv.o(x$fpl$ddiv) for __aeabi_ddiv
    pow_x.o(i.____hardfp_pow$lsc) refers to sqrt.o(i.sqrt) for sqrt
    pow_x.o(i.____hardfp_pow$lsc) refers to fabs.o(i.fabs) for fabs
    pow_x.o(i.____hardfp_pow$lsc) refers to dflt_clz.o(x$fpl$dflt) for __aeabi_i2d
    pow_x.o(i.____hardfp_pow$lsc) refers to daddsub_clz.o(x$fpl$dsub) for __aeabi_dsub
    pow_x.o(i.____hardfp_pow$lsc) refers to dmul.o(x$fpl$dmul) for __aeabi_dmul
    pow_x.o(i.____hardfp_pow$lsc) refers to daddsub_clz.o(x$fpl$drsb) for __aeabi_drsub
    pow_x.o(i.____hardfp_pow$lsc) refers to qnan.o(.constdata) for __mathlib_zero
    pow_x.o(i.____hardfp_pow$lsc) refers to daddsub_clz.o(x$fpl$dadd) for __aeabi_dadd
    pow_x.o(i.____hardfp_pow$lsc) refers to poly.o(i.__kernel_poly) for __kernel_poly
    pow_x.o(i.____hardfp_pow$lsc) refers to pow_x.o(.constdata) for .constdata
    pow_x.o(i.____hardfp_pow$lsc) refers to drleqf.o(x$fpl$drleqf) for __aeabi_cdrcmple
    pow_x.o(i.____hardfp_pow$lsc) refers to scalbn.o(x$fpl$scalbn) for __ARM_scalbn
    pow_x.o(i.____softfp_pow$lsc) refers (Special) to usenofp.o(x$fpl$usenofp) for __I$use$fp
    pow_x.o(i.____softfp_pow$lsc) refers to pow_x.o(i.____hardfp_pow$lsc) for ____hardfp_pow$lsc
    pow_x.o(i.__pow$lsc) refers (Special) to usenofp.o(x$fpl$usenofp) for __I$use$fp
    pow_x.o(i.__pow$lsc) refers to pow_x.o(i.____hardfp_pow$lsc) for ____hardfp_pow$lsc
    pow_x.o(.constdata) refers (Special) to usenofp.o(x$fpl$usenofp) for __I$use$fp
    round.o(i.__hardfp_round) refers (Special) to usenofp.o(x$fpl$usenofp) for __I$use$fp
    round.o(i.__hardfp_round) refers to drnd.o(x$fpl$drnd) for _drnd
    round.o(i.__hardfp_round) refers to daddsub_clz.o(x$fpl$dsub) for __aeabi_dsub
    round.o(i.__hardfp_round) refers to dleqf.o(x$fpl$dleqf) for __aeabi_cdcmple
    round.o(i.__hardfp_round) refers to drleqf.o(x$fpl$drleqf) for __aeabi_cdrcmple
    round.o(i.__hardfp_round) refers to daddsub_clz.o(x$fpl$dadd) for __aeabi_dadd
    round.o(i.round) refers (Special) to usenofp.o(x$fpl$usenofp) for __I$use$fp
    round.o(i.round) refers to drnd.o(x$fpl$drnd) for _drnd
    round.o(i.round) refers to daddsub_clz.o(x$fpl$dsub) for __aeabi_dsub
    round.o(i.round) refers to dleqf.o(x$fpl$dleqf) for __aeabi_cdcmple
    round.o(i.round) refers to drleqf.o(x$fpl$drleqf) for __aeabi_cdrcmple
    round.o(i.round) refers to daddsub_clz.o(x$fpl$dadd) for __aeabi_dadd
    __rtentry.o(.ARM.Collect$$rtentry$$00000000) refers (Special) to __rtentry2.o(.ARM.Collect$$rtentry$$0000000A) for __rt_entry_li
    __rtentry.o(.ARM.Collect$$rtentry$$00000000) refers (Special) to __rtentry2.o(.ARM.Collect$$rtentry$$0000000D) for __rt_entry_main
    __rtentry.o(.ARM.Collect$$rtentry$$00000000) refers (Special) to __rtentry2.o(.ARM.Collect$$rtentry$$0000000C) for __rt_entry_postli_1
    __rtentry.o(.ARM.Collect$$rtentry$$00000000) refers (Special) to __rtentry2.o(.ARM.Collect$$rtentry$$00000009) for __rt_entry_postsh_1
    __rtentry.o(.ARM.Collect$$rtentry$$00000000) refers (Special) to __rtentry2.o(.ARM.Collect$$rtentry$$00000002) for __rt_entry_presh_1
    __rtentry.o(.ARM.Collect$$rtentry$$00000000) refers (Special) to __rtentry4.o(.ARM.Collect$$rtentry$$00000004) for __rt_entry_sh
    rt_ctype_table.o(.text) refers to rt_locale_intlibspace.o(.text) for __rt_locale
    rt_ctype_table.o(.text) refers to lc_ctype_c.o(locale$$code) for _get_lc_ctype
    rt_heap_descriptor.o(.text) refers to rt_heap_descriptor.o(.bss) for __rt_heap_descriptor_data
    rt_heap_descriptor_intlibspace.o(.text) refers to libspace.o(.bss) for __libspace_start
    init_alloc.o(.text) refers (Special) to hguard.o(.text) for __heap$guard
    init_alloc.o(.text) refers (Special) to libinit2.o(.ARM.Collect$$libinit$$00000005) for __rt_lib_init_heap_2
    init_alloc.o(.text) refers (Special) to maybetermalloc1.o(.emb_text) for _maybe_terminate_alloc
    init_alloc.o(.text) refers to h1_extend.o(.text) for __Heap_ProvideMemory
    init_alloc.o(.text) refers to defsig_rtmem_outer.o(.text) for __rt_SIGRTMEM
    init_alloc.o(.text) refers to rt_heap_descriptor_intlibspace.o(.text) for __rt_heap_descriptor
    init_alloc.o(.text) refers to h1_init.o(.text) for __Heap_Initialize
    h1_init_mt.o(.text) refers to mutex_dummy.o(.text) for _mutex_initialize
    _rserrno.o(.text) refers to rt_errno_addr_intlibspace.o(.text) for __aeabi_errno_addr
    _printf_intcommon.o(.text) refers (Weak) to _printf_pad.o(.text) for _printf_pre_padding
    _printf_intcommon.o(.text) refers (Weak) to _printf_pad.o(.text) for _printf_pre_padding
    _printf_intcommon.o(.text) refers (Weak) to _printf_pad.o(.text) for _printf_post_padding
    _printf_fp_dec.o(.text) refers (Special) to usenofp.o(x$fpl$usenofp) for __I$use$fp
    _printf_fp_dec.o(.text) refers (Special) to lc_numeric_c.o(locale$$code) for _get_lc_numeric
    _printf_fp_dec.o(.text) refers to bigflt0.o(.text) for _btod_etento
    _printf_fp_dec.o(.text) refers to btod.o(CL$$btod_d2e) for _btod_d2e
    _printf_fp_dec.o(.text) refers to btod.o(CL$$btod_ediv) for _btod_ediv
    _printf_fp_dec.o(.text) refers to btod.o(CL$$btod_emul) for _btod_emul
    _printf_fp_dec.o(.text) refers to lludiv10.o(.text) for _ll_udiv10
    _printf_fp_dec.o(.text) refers to fpclassify.o(i.__ARM_fpclassify) for __ARM_fpclassify
    _printf_fp_dec.o(.text) refers to _printf_fp_infnan.o(.text) for _printf_fp_infnan
    _printf_fp_dec.o(.text) refers (Weak) to _printf_pad.o(.text) for _printf_pre_padding
    _printf_fp_dec.o(.text) refers (Weak) to _printf_pad.o(.text) for _printf_pre_padding
    _printf_fp_dec.o(.text) refers to rt_locale_intlibspace.o(.text) for __rt_locale
    _printf_fp_dec.o(.text) refers (Weak) to _printf_pad.o(.text) for _printf_post_padding
    _printf_char_common.o(.text) refers to __printf_flags_ss_wp.o(.text) for __printf
    _printf_char.o(.text) refers (Weak) to _printf_str.o(.text) for _printf_str
    _printf_char_file.o(.text) refers to _printf_char_common.o(.text) for _printf_char_common
    _printf_char_file.o(.text) refers to ferror.o(.text) for ferror
    _printf_char_file.o(.text) refers to usart.o(.text) for fputc
    _printf_wctomb.o(.text) refers (Special) to _printf_wchar.o(.text) for _printf_lcs_common
    _printf_wctomb.o(.text) refers to _wcrtomb.o(.text) for _wcrtomb
    _printf_wctomb.o(.text) refers (Weak) to _printf_pad.o(.text) for _printf_pre_padding
    _printf_wctomb.o(.text) refers (Weak) to _printf_pad.o(.text) for _printf_post_padding
    _printf_wctomb.o(.text) refers to _printf_wctomb.o(.constdata) for .constdata
    _printf_wctomb.o(.constdata) refers (Special) to _printf_wchar.o(.text) for _printf_lcs_common
    _printf_longlong_dec.o(.text) refers to lludiv10.o(.text) for _ll_udiv10
    _printf_longlong_dec.o(.text) refers to _printf_intcommon.o(.text) for _printf_int_common
    _printf_oct_ll.o(.text) refers to _printf_intcommon.o(.text) for _printf_int_common
    _printf_oct_int.o(.text) refers (Weak) to _printf_truncate.o(.text) for _printf_truncate_unsigned
    _printf_oct_int.o(.text) refers to _printf_intcommon.o(.text) for _printf_int_common
    _printf_oct_int_ll.o(.text) refers to _printf_intcommon.o(.text) for _printf_int_common
    _printf_oct_int_ll.o(.text) refers (Weak) to _printf_truncate.o(.text) for _printf_truncate_unsigned
    _printf_n.o(.ARM.Collect$$_printf_percent$$00000001) refers (Weak) to _printf_charcount.o(.text) for _printf_charcount
    _printf_p.o(.ARM.Collect$$_printf_percent$$00000002) refers (Weak) to _printf_hex_int_ll_ptr.o(.text) for _printf_hex_ptr
    _printf_o.o(.ARM.Collect$$_printf_percent$$0000000B) refers (Weak) to _printf_oct_int_ll.o(.text) for _printf_int_oct
    _printf_i.o(.ARM.Collect$$_printf_percent$$00000008) refers (Weak) to _printf_dec.o(.text) for _printf_int_dec
    _printf_g.o(.ARM.Collect$$_printf_percent$$00000005) refers (Weak) to printf1.o(x$fpl$printf1) for _printf_fp_dec
    _printf_a.o(.ARM.Collect$$_printf_percent$$00000006) refers (Weak) to printf2.o(x$fpl$printf2) for _printf_fp_hex
    _printf_lli.o(.ARM.Collect$$_printf_percent$$0000000D) refers (Special) to _printf_ll.o(.ARM.Collect$$_printf_percent$$00000007) for _printf_ll
    _printf_lli.o(.ARM.Collect$$_printf_percent$$0000000D) refers (Weak) to _printf_longlong_dec.o(.text) for _printf_longlong_dec
    _printf_lld.o(.ARM.Collect$$_printf_percent$$0000000E) refers (Special) to _printf_ll.o(.ARM.Collect$$_printf_percent$$00000007) for _printf_ll
    _printf_lld.o(.ARM.Collect$$_printf_percent$$0000000E) refers (Weak) to _printf_longlong_dec.o(.text) for _printf_longlong_dec
    _printf_llu.o(.ARM.Collect$$_printf_percent$$0000000F) refers (Special) to _printf_ll.o(.ARM.Collect$$_printf_percent$$00000007) for _printf_ll
    _printf_llu.o(.ARM.Collect$$_printf_percent$$0000000F) refers (Weak) to _printf_longlong_dec.o(.text) for _printf_longlong_dec
    _printf_lc.o(.ARM.Collect$$_printf_percent$$00000015) refers (Special) to _printf_l.o(.ARM.Collect$$_printf_percent$$00000012) for _printf_l
    _printf_lc.o(.ARM.Collect$$_printf_percent$$00000015) refers (Weak) to _printf_wchar.o(.text) for _printf_wchar
    _printf_ls.o(.ARM.Collect$$_printf_percent$$00000016) refers (Special) to _printf_l.o(.ARM.Collect$$_printf_percent$$00000012) for _printf_l
    _printf_ls.o(.ARM.Collect$$_printf_percent$$00000016) refers (Weak) to _printf_wchar.o(.text) for _printf_wstring
    _printf_llo.o(.ARM.Collect$$_printf_percent$$00000010) refers (Special) to _printf_ll.o(.ARM.Collect$$_printf_percent$$00000007) for _printf_ll
    _printf_llo.o(.ARM.Collect$$_printf_percent$$00000010) refers (Weak) to _printf_oct_int_ll.o(.text) for _printf_ll_oct
    _printf_llx.o(.ARM.Collect$$_printf_percent$$00000011) refers (Special) to _printf_ll.o(.ARM.Collect$$_printf_percent$$00000007) for _printf_ll
    _printf_llx.o(.ARM.Collect$$_printf_percent$$00000011) refers (Weak) to _printf_hex_int_ll_ptr.o(.text) for _printf_ll_hex
    scanf_fp.o(.text) refers (Special) to usenofp.o(x$fpl$usenofp) for __I$use$fp
    scanf_fp.o(.text) refers (Special) to lc_numeric_c.o(locale$$code) for _get_lc_numeric
    scanf_fp.o(.text) refers to rt_errno_addr_intlibspace.o(.text) for __aeabi_errno_addr
    scanf_fp.o(.text) refers to bigflt0.o(.text) for _btod_etento
    scanf_fp.o(.text) refers to btod.o(CL$$btod_emuld) for _btod_emuld
    scanf_fp.o(.text) refers to btod.o(CL$$btod_edivd) for _btod_edivd
    scanf_fp.o(.text) refers to rt_locale_intlibspace.o(.text) for __rt_locale
    scanf_fp.o(.text) refers to scanf2.o(x$fpl$scanf2) for _scanf_infnan
    scanf_fp.o(.text) refers to __printf_wp.o(i._is_digit) for _is_digit
    scanf_fp.o(.text) refers to narrow.o(i.__mathlib_narrow) for __mathlib_narrow
    scanf_fp.o(.text) refers to fpconst.o(c$$dinf) for __huge_val
    scanf_char.o(.text) refers to _scanf.o(.text) for __vfscanf
    scanf_char.o(.text) refers to isspace.o(.text) for isspace
    rt_memclr.o(.text) refers to rt_memclr_w.o(.text) for _memset_w
    _get_argv.o(.text) refers (Special) to hrguard.o(.text) for __heap_region$guard
    _get_argv.o(.text) refers to h1_alloc.o(.text) for malloc
    _get_argv.o(.text) refers to defsig_rtmem_outer.o(.text) for __rt_SIGRTMEM
    _get_argv.o(.text) refers to sys_command.o(.text) for _sys_command_string
    libinit2.o(.ARM.Collect$$libinit$$00000001) refers to fpinit.o(x$fpl$fpinit) for _fp_init
    libinit2.o(.ARM.Collect$$libinit$$00000005) refers (Weak) to init_alloc.o(.text) for _init_alloc
    libinit2.o(.ARM.Collect$$libinit$$0000000D) refers (Weak) to rand.o(.text) for _rand_init
    libinit2.o(.ARM.Collect$$libinit$$0000000F) refers (Weak) to rt_locale_intlibspace.o(.text) for __rt_locale
    libinit2.o(.ARM.Collect$$libinit$$00000010) refers to libinit2.o(.ARM.Collect$$libinit$$0000000F) for .ARM.Collect$$libinit$$0000000F
    libinit2.o(.ARM.Collect$$libinit$$00000012) refers to libinit2.o(.ARM.Collect$$libinit$$0000000F) for .ARM.Collect$$libinit$$0000000F
    libinit2.o(.ARM.Collect$$libinit$$00000012) refers (Weak) to lc_ctype_c.o(locale$$code) for _get_lc_ctype
    libinit2.o(.ARM.Collect$$libinit$$00000014) refers to libinit2.o(.ARM.Collect$$libinit$$0000000F) for .ARM.Collect$$libinit$$0000000F
    libinit2.o(.ARM.Collect$$libinit$$00000016) refers to libinit2.o(.ARM.Collect$$libinit$$0000000F) for .ARM.Collect$$libinit$$0000000F
    libinit2.o(.ARM.Collect$$libinit$$00000016) refers (Weak) to lc_numeric_c.o(locale$$code) for _get_lc_numeric
    libinit2.o(.ARM.Collect$$libinit$$00000018) refers to libinit2.o(.ARM.Collect$$libinit$$0000000F) for .ARM.Collect$$libinit$$0000000F
    libinit2.o(.ARM.Collect$$libinit$$00000026) refers to argv_veneer.o(.emb_text) for __ARM_argv_veneer
    libinit2.o(.ARM.Collect$$libinit$$00000027) refers to argv_veneer.o(.emb_text) for __ARM_argv_veneer
    dcmpi.o(x$fpl$dcmpinf) refers (Special) to usenofp.o(x$fpl$usenofp) for __I$use$fp
    dnaninf.o(x$fpl$dnaninf) refers (Special) to usenofp.o(x$fpl$usenofp) for __I$use$fp
    dretinf.o(x$fpl$dretinf) refers (Special) to usenofp.o(x$fpl$usenofp) for __I$use$fp
    drnd.o(x$fpl$drnd) refers (Special) to usenofp.o(x$fpl$usenofp) for __I$use$fp
    drnd.o(x$fpl$drnd) refers to dnaninf.o(x$fpl$dnaninf) for __fpl_dnaninf
    fnaninf.o(x$fpl$fnaninf) refers (Special) to usenofp.o(x$fpl$usenofp) for __I$use$fp
    fretinf.o(x$fpl$fretinf) refers (Special) to usenofp.o(x$fpl$usenofp) for __I$use$fp
    printf2.o(x$fpl$printf2) refers to _printf_fp_hex.o(.text) for _printf_fp_hex_real
    printf2b.o(x$fpl$printf2) refers to _printf_fp_hex.o(.text) for _printf_fp_hex_real
    scalbn.o(x$fpl$scalbn) refers (Special) to usenofp.o(x$fpl$usenofp) for __I$use$fp
    scalbn.o(x$fpl$scalbn) refers to dcheck1.o(x$fpl$dcheck1) for __fpl_dcheck_NaN1
    dunder.o(i.__mathlib_dbl_divzero) refers to ddiv.o(x$fpl$ddiv) for __aeabi_ddiv
    dunder.o(i.__mathlib_dbl_infnan) refers to daddsub_clz.o(x$fpl$dadd) for __aeabi_dadd
    dunder.o(i.__mathlib_dbl_infnan2) refers to daddsub_clz.o(x$fpl$dadd) for __aeabi_dadd
    dunder.o(i.__mathlib_dbl_invalid) refers to ddiv.o(x$fpl$ddiv) for __aeabi_ddiv
    dunder.o(i.__mathlib_dbl_overflow) refers to dmul.o(x$fpl$dmul) for __aeabi_dmul
    dunder.o(i.__mathlib_dbl_posinfnan) refers to dmul.o(x$fpl$dmul) for __aeabi_dmul
    dunder.o(i.__mathlib_dbl_underflow) refers to dmul.o(x$fpl$dmul) for __aeabi_dmul
    fpclassify.o(i.__ARM_fpclassify) refers (Special) to usenofp.o(x$fpl$usenofp) for __I$use$fp
    log.o(i.__hardfp_log) refers (Special) to usenofp.o(x$fpl$usenofp) for __I$use$fp
    log.o(i.__hardfp_log) refers to dunder.o(i.__mathlib_dbl_infnan) for __mathlib_dbl_infnan
    log.o(i.__hardfp_log) refers to _rserrno.o(.text) for __set_errno
    log.o(i.__hardfp_log) refers to dunder.o(i.__mathlib_dbl_invalid) for __mathlib_dbl_invalid
    log.o(i.__hardfp_log) refers to dunder.o(i.__mathlib_dbl_divzero) for __mathlib_dbl_divzero
    log.o(i.__hardfp_log) refers to basic.o(x$fpl$basic) for __aeabi_dneg
    log.o(i.__hardfp_log) refers to dmul.o(x$fpl$dmul) for __aeabi_dmul
    log.o(i.__hardfp_log) refers to daddsub_clz.o(x$fpl$dsub) for __aeabi_dsub
    log.o(i.__hardfp_log) refers to deqf.o(x$fpl$deqf) for __aeabi_cdcmpeq
    log.o(i.__hardfp_log) refers to dflt_clz.o(x$fpl$dflt) for __aeabi_i2d
    log.o(i.__hardfp_log) refers to daddsub_clz.o(x$fpl$dadd) for __aeabi_dadd
    log.o(i.__hardfp_log) refers to daddsub_clz.o(x$fpl$drsb) for __aeabi_drsub
    log.o(i.__hardfp_log) refers to ddiv.o(x$fpl$ddiv) for __aeabi_ddiv
    log.o(i.__hardfp_log) refers to poly.o(i.__kernel_poly) for __kernel_poly
    log.o(i.__hardfp_log) refers to qnan.o(.constdata) for __mathlib_zero
    log.o(i.__hardfp_log) refers to log.o(.constdata) for .constdata
    log.o(i.__softfp_log) refers (Special) to usenofp.o(x$fpl$usenofp) for __I$use$fp
    log.o(i.__softfp_log) refers to log.o(i.__hardfp_log) for __hardfp_log
    log.o(i.log) refers (Special) to usenofp.o(x$fpl$usenofp) for __I$use$fp
    log.o(i.log) refers to log.o(i.__hardfp_log) for __hardfp_log
    log.o(.constdata) refers (Special) to usenofp.o(x$fpl$usenofp) for __I$use$fp
    log_x.o(i.____hardfp_log$lsc) refers (Special) to usenofp.o(x$fpl$usenofp) for __I$use$fp
    log_x.o(i.____hardfp_log$lsc) refers to dunder.o(i.__mathlib_dbl_infnan) for __mathlib_dbl_infnan
    log_x.o(i.____hardfp_log$lsc) refers to _rserrno.o(.text) for __set_errno
    log_x.o(i.____hardfp_log$lsc) refers to dmul.o(x$fpl$dmul) for __aeabi_dmul
    log_x.o(i.____hardfp_log$lsc) refers to daddsub_clz.o(x$fpl$dsub) for __aeabi_dsub
    log_x.o(i.____hardfp_log$lsc) refers to deqf.o(x$fpl$deqf) for __aeabi_cdcmpeq
    log_x.o(i.____hardfp_log$lsc) refers to dflt_clz.o(x$fpl$dflt) for __aeabi_i2d
    log_x.o(i.____hardfp_log$lsc) refers to daddsub_clz.o(x$fpl$dadd) for __aeabi_dadd
    log_x.o(i.____hardfp_log$lsc) refers to daddsub_clz.o(x$fpl$drsb) for __aeabi_drsub
    log_x.o(i.____hardfp_log$lsc) refers to ddiv.o(x$fpl$ddiv) for __aeabi_ddiv
    log_x.o(i.____hardfp_log$lsc) refers to poly.o(i.__kernel_poly) for __kernel_poly
    log_x.o(i.____hardfp_log$lsc) refers to qnan.o(.constdata) for __mathlib_zero
    log_x.o(i.____hardfp_log$lsc) refers to log_x.o(.constdata) for .constdata
    log_x.o(i.____softfp_log$lsc) refers (Special) to usenofp.o(x$fpl$usenofp) for __I$use$fp
    log_x.o(i.____softfp_log$lsc) refers to log_x.o(i.____hardfp_log$lsc) for ____hardfp_log$lsc
    log_x.o(i.__log$lsc) refers (Special) to usenofp.o(x$fpl$usenofp) for __I$use$fp
    log_x.o(i.__log$lsc) refers to log_x.o(i.____hardfp_log$lsc) for ____hardfp_log$lsc
    log_x.o(.constdata) refers (Special) to usenofp.o(x$fpl$usenofp) for __I$use$fp
    poly.o(i.__kernel_poly) refers (Special) to usenofp.o(x$fpl$usenofp) for __I$use$fp
    poly.o(i.__kernel_poly) refers to dmul.o(x$fpl$dmul) for __aeabi_dmul
    poly.o(i.__kernel_poly) refers to daddsub_clz.o(x$fpl$dadd) for __aeabi_dadd
    qnan.o(.constdata) refers (Special) to usenofp.o(x$fpl$usenofp) for __I$use$fp
    sqrt.o(i.__hardfp_sqrt) refers (Special) to usenofp.o(x$fpl$usenofp) for __I$use$fp
    sqrt.o(i.__hardfp_sqrt) refers to dsqrt_umaal.o(x$fpl$dsqrt) for _dsqrt
    sqrt.o(i.__hardfp_sqrt) refers to _rserrno.o(.text) for __set_errno
    sqrt.o(i.__softfp_sqrt) refers (Special) to usenofp.o(x$fpl$usenofp) for __I$use$fp
    sqrt.o(i.__softfp_sqrt) refers to dsqrt_umaal.o(x$fpl$dsqrt) for _dsqrt
    sqrt.o(i.__softfp_sqrt) refers to _rserrno.o(.text) for __set_errno
    sqrt.o(i.sqrt) refers (Special) to usenofp.o(x$fpl$usenofp) for __I$use$fp
    sqrt.o(i.sqrt) refers to dsqrt_umaal.o(x$fpl$dsqrt) for _dsqrt
    sqrt.o(i.sqrt) refers to _rserrno.o(.text) for __set_errno
    sqrt_x.o(i.____hardfp_sqrt$lsc) refers (Special) to usenofp.o(x$fpl$usenofp) for __I$use$fp
    sqrt_x.o(i.____hardfp_sqrt$lsc) refers to dleqf.o(x$fpl$dleqf) for __aeabi_cdcmple
    sqrt_x.o(i.____hardfp_sqrt$lsc) refers to _rserrno.o(.text) for __set_errno
    sqrt_x.o(i.____hardfp_sqrt$lsc) refers to dsqrt_umaal.o(x$fpl$dsqrt) for _dsqrt
    sqrt_x.o(i.____softfp_sqrt$lsc) refers (Special) to usenofp.o(x$fpl$usenofp) for __I$use$fp
    sqrt_x.o(i.____softfp_sqrt$lsc) refers to dleqf.o(x$fpl$dleqf) for __aeabi_cdcmple
    sqrt_x.o(i.____softfp_sqrt$lsc) refers to _rserrno.o(.text) for __set_errno
    sqrt_x.o(i.____softfp_sqrt$lsc) refers to dsqrt_umaal.o(x$fpl$dsqrt) for _dsqrt
    sqrt_x.o(i.__sqrt$lsc) refers (Special) to usenofp.o(x$fpl$usenofp) for __I$use$fp
    sqrt_x.o(i.__sqrt$lsc) refers to dleqf.o(x$fpl$dleqf) for __aeabi_cdcmple
    sqrt_x.o(i.__sqrt$lsc) refers to _rserrno.o(.text) for __set_errno
    sqrt_x.o(i.__sqrt$lsc) refers to dsqrt_umaal.o(x$fpl$dsqrt) for _dsqrt
    sys_command.o(.text) refers (Special) to use_no_semi.o(.text) for __I$use$semihosting
    sys_command.o(.text) refers (Special) to indicate_semi.o(.text) for __semihosting_library_function
    libspace.o(.text) refers to libspace.o(.bss) for __libspace_start
    __rtentry2.o(.ARM.Collect$$rtentry$$00000008) refers to boardinit2.o(.text) for _platform_post_stackheap_init
    __rtentry2.o(.ARM.Collect$$rtentry$$0000000A) refers to libinit.o(.ARM.Collect$$libinit$$00000000) for __rt_lib_init
    __rtentry2.o(.ARM.Collect$$rtentry$$0000000B) refers to boardinit3.o(.text) for _platform_post_lib_init
    __rtentry2.o(.ARM.Collect$$rtentry$$0000000D) refers to main.o(.text) for main
    __rtentry2.o(.ARM.Collect$$rtentry$$0000000D) refers to exit.o(.text) for exit
    __rtentry2.o(.ARM.exidx) refers to __rtentry2.o(.ARM.Collect$$rtentry$$00000001) for .ARM.Collect$$rtentry$$00000001
    __rtentry2.o(.ARM.exidx) refers to __rtentry2.o(.ARM.Collect$$rtentry$$00000008) for .ARM.Collect$$rtentry$$00000008
    __rtentry2.o(.ARM.exidx) refers to __rtentry2.o(.ARM.Collect$$rtentry$$0000000A) for .ARM.Collect$$rtentry$$0000000A
    __rtentry2.o(.ARM.exidx) refers to __rtentry2.o(.ARM.Collect$$rtentry$$0000000B) for .ARM.Collect$$rtentry$$0000000B
    __rtentry2.o(.ARM.exidx) refers to __rtentry2.o(.ARM.Collect$$rtentry$$0000000D) for .ARM.Collect$$rtentry$$0000000D
    __rtentry4.o(.ARM.Collect$$rtentry$$00000004) refers to sys_stackheap_outer.o(.text) for __user_setup_stackheap
    __rtentry4.o(.ARM.exidx) refers to __rtentry4.o(.ARM.Collect$$rtentry$$00000004) for .ARM.Collect$$rtentry$$00000004
    aeabi_ldiv0_sigfpe.o(.text) refers to rt_div0.o(.text) for __rt_div0
    rt_locale.o(.text) refers to rt_locale.o(.bss) for __rt_locale_data
    rt_locale_intlibspace.o(.text) refers to libspace.o(.bss) for __libspace_start
    rt_errno_addr.o(.text) refers to rt_errno_addr.o(.bss) for __aeabi_errno_addr_data
    rt_errno_addr_intlibspace.o(.text) refers to libspace.o(.bss) for __libspace_start
    maybetermalloc2.o(.emb_text) refers (Special) to term_alloc.o(.text) for _terminate_alloc
    h1_extend.o(.text) refers to h1_free.o(.text) for free
    h1_extend_mt.o(.text) refers to h1_free_mt.o(.text) for _free_internal
    isspace.o(.text) refers to rt_ctype_table.o(.text) for __rt_ctype_table
    _printf_fp_hex.o(.text) refers (Special) to usenofp.o(x$fpl$usenofp) for __I$use$fp
    _printf_fp_hex.o(.text) refers to fpclassify.o(i.__ARM_fpclassify) for __ARM_fpclassify
    _printf_fp_hex.o(.text) refers to _printf_fp_infnan.o(.text) for _printf_fp_infnan
    _printf_fp_hex.o(.text) refers (Weak) to _printf_pad.o(.text) for _printf_pre_padding
    _printf_fp_hex.o(.text) refers (Weak) to _printf_pad.o(.text) for _printf_pre_padding
    _printf_fp_hex.o(.text) refers (Weak) to _printf_pad.o(.text) for _printf_post_padding
    _printf_fp_hex.o(.text) refers to _printf_fp_hex.o(.constdata) for .constdata
    _printf_fp_hex.o(.constdata) refers (Special) to usenofp.o(x$fpl$usenofp) for __I$use$fp
    _printf_fp_infnan.o(.text) refers (Weak) to _printf_pad.o(.text) for _printf_pre_padding
    _printf_fp_infnan.o(.text) refers (Weak) to _printf_pad.o(.text) for _printf_post_padding
    _printf_wchar.o(.text) refers (Weak) to _printf_wctomb.o(.text) for _printf_wctomb
    _scanf.o(.text) refers (Weak) to scanf1.o(x$fpl$scanf1) for _scanf_real
    _scanf.o(.text) refers (Weak) to _scanf_int.o(.text) for _scanf_int
    bigflt0.o(.text) refers (Special) to usenofp.o(x$fpl$usenofp) for __I$use$fp
    bigflt0.o(.text) refers to btod.o(CL$$btod_emul) for _btod_emul
    bigflt0.o(.text) refers to btod.o(CL$$btod_ediv) for _btod_ediv
    bigflt0.o(.text) refers to bigflt0.o(.constdata) for .constdata
    bigflt0.o(.constdata) refers (Special) to usenofp.o(x$fpl$usenofp) for __I$use$fp
    btod.o(CL$$btod_d2e) refers (Special) to usenofp.o(x$fpl$usenofp) for __I$use$fp
    btod.o(CL$$btod_d2e) refers to btod.o(CL$$btod_d2e_norm_op1) for _d2e_norm_op1
    btod.o(CL$$btod_d2e_norm_op1) refers (Special) to usenofp.o(x$fpl$usenofp) for __I$use$fp
    btod.o(CL$$btod_d2e_norm_op1) refers to btod.o(CL$$btod_d2e_denorm_low) for _d2e_denorm_low
    btod.o(CL$$btod_d2e_denorm_low) refers (Special) to usenofp.o(x$fpl$usenofp) for __I$use$fp
    btod.o(CL$$btod_emul) refers (Special) to usenofp.o(x$fpl$usenofp) for __I$use$fp
    btod.o(CL$$btod_emul) refers to btod.o(CL$$btod_mult_common) for __btod_mult_common
    btod.o(CL$$btod_emul) refers to btod.o(CL$$btod_e2e) for _e2e
    btod.o(CL$$btod_ediv) refers (Special) to usenofp.o(x$fpl$usenofp) for __I$use$fp
    btod.o(CL$$btod_ediv) refers to btod.o(CL$$btod_div_common) for __btod_div_common
    btod.o(CL$$btod_ediv) refers to btod.o(CL$$btod_e2e) for _e2e
    btod.o(CL$$btod_emuld) refers (Special) to usenofp.o(x$fpl$usenofp) for __I$use$fp
    btod.o(CL$$btod_emuld) refers to btod.o(CL$$btod_mult_common) for __btod_mult_common
    btod.o(CL$$btod_emuld) refers to btod.o(CL$$btod_e2d) for _e2d
    btod.o(CL$$btod_edivd) refers (Special) to usenofp.o(x$fpl$usenofp) for __I$use$fp
    btod.o(CL$$btod_edivd) refers to btod.o(CL$$btod_div_common) for __btod_div_common
    btod.o(CL$$btod_edivd) refers to btod.o(CL$$btod_e2d) for _e2d
    btod.o(CL$$btod_e2e) refers (Special) to usenofp.o(x$fpl$usenofp) for __I$use$fp
    btod.o(CL$$btod_e2d) refers (Special) to usenofp.o(x$fpl$usenofp) for __I$use$fp
    btod.o(CL$$btod_e2d) refers to btod.o(CL$$btod_e2e) for _e2e
    btod.o(CL$$btod_mult_common) refers (Special) to usenofp.o(x$fpl$usenofp) for __I$use$fp
    btod.o(CL$$btod_div_common) refers (Special) to usenofp.o(x$fpl$usenofp) for __I$use$fp
    _wcrtomb.o(.text) refers to rt_ctype_table.o(.text) for __rt_ctype_table
    lc_ctype_c.o(locale$$data) refers (Special) to libinit2.o(.ARM.Collect$$libinit$$00000012) for __rt_lib_init_lc_ctype_2
    lc_ctype_c.o(locale$$code) refers (Special) to libinit2.o(.ARM.Collect$$libinit$$00000012) for __rt_lib_init_lc_ctype_2
    lc_ctype_c.o(locale$$code) refers to strcmpv7m.o(.text) for strcmp
    lc_ctype_c.o(locale$$code) refers to lc_ctype_c.o(locale$$data) for __lcctype_c_name
    lc_numeric_c.o(locale$$data) refers (Special) to libinit2.o(.ARM.Collect$$libinit$$00000016) for __rt_lib_init_lc_numeric_2
    lc_numeric_c.o(locale$$code) refers (Special) to libinit2.o(.ARM.Collect$$libinit$$00000016) for __rt_lib_init_lc_numeric_2
    lc_numeric_c.o(locale$$code) refers to strcmpv7m.o(.text) for strcmp
    lc_numeric_c.o(locale$$code) refers to lc_numeric_c.o(locale$$data) for __lcnum_c_name
    defsig_rtmem_outer.o(.text) refers to defsig_rtmem_inner.o(.text) for __rt_SIGRTMEM_inner
    defsig_rtmem_outer.o(.text) refers to defsig_exit.o(.text) for __sig_exit
    defsig_rtmem_formal.o(.text) refers to rt_raise.o(.text) for __rt_raise
    heapauxa.o(.text) refers to heapauxa.o(.data) for .data
    argv_veneer.o(.emb_text) refers to no_argv.o(.text) for __ARM_get_argv
    dcheck1.o(x$fpl$dcheck1) refers (Special) to usenofp.o(x$fpl$usenofp) for __I$use$fp
    dcheck1.o(x$fpl$dcheck1) refers to retnan.o(x$fpl$retnan) for __fpl_return_NaN
    dsqrt_umaal.o(x$fpl$dsqrt) refers (Special) to usenofp.o(x$fpl$usenofp) for __I$use$fp
    dsqrt_umaal.o(x$fpl$dsqrt) refers to dnaninf.o(x$fpl$dnaninf) for __fpl_dnaninf
    fpconst.o(c$$dinf) refers (Special) to usenofp.o(x$fpl$usenofp) for __I$use$fp
    fpconst.o(c$$dnan) refers (Special) to usenofp.o(x$fpl$usenofp) for __I$use$fp
    fpconst.o(c$$finf) refers (Special) to usenofp.o(x$fpl$usenofp) for __I$use$fp
    istatus.o(x$fpl$ieeestatus) refers (Special) to usenofp.o(x$fpl$usenofp) for __I$use$fp
    scanf2.o(x$fpl$scanf2) refers to scanf_hexfp.o(.text) for _scanf_really_hex_real
    scanf2.o(x$fpl$scanf2) refers to scanf_infnan.o(.text) for _scanf_really_infnan
    scanf2b.o(x$fpl$scanf2) refers to scanf_hexfp.o(.text) for _scanf_really_hex_real
    scanf2b.o(x$fpl$scanf2) refers to scanf_infnan.o(.text) for _scanf_really_infnan
    narrow.o(i.__hardfp___mathlib_tofloat) refers (Special) to usenofp.o(x$fpl$usenofp) for __I$use$fp
    narrow.o(i.__hardfp___mathlib_tofloat) refers to frexp.o(i.frexp) for frexp
    narrow.o(i.__hardfp___mathlib_tofloat) refers to deqf.o(x$fpl$deqf) for __aeabi_cdcmpeq
    narrow.o(i.__hardfp___mathlib_tofloat) refers to d2f.o(x$fpl$d2f) for __aeabi_d2f
    narrow.o(i.__hardfp___mathlib_tofloat) refers to _rserrno.o(.text) for __set_errno
    narrow.o(i.__hardfp___mathlib_tofloat) refers to drleqf.o(x$fpl$drleqf) for __aeabi_cdrcmple
    narrow.o(i.__mathlib_narrow) refers (Special) to usenofp.o(x$fpl$usenofp) for __I$use$fp
    narrow.o(i.__mathlib_narrow) refers to frexp.o(i.frexp) for frexp
    narrow.o(i.__mathlib_narrow) refers to deqf.o(x$fpl$deqf) for __aeabi_cdcmpeq
    narrow.o(i.__mathlib_narrow) refers to d2f.o(x$fpl$d2f) for __aeabi_d2f
    narrow.o(i.__mathlib_narrow) refers to _rserrno.o(.text) for __set_errno
    narrow.o(i.__mathlib_narrow) refers to drleqf.o(x$fpl$drleqf) for __aeabi_cdrcmple
    narrow.o(i.__mathlib_tofloat) refers (Special) to usenofp.o(x$fpl$usenofp) for __I$use$fp
    narrow.o(i.__mathlib_tofloat) refers to frexp.o(i.frexp) for frexp
    narrow.o(i.__mathlib_tofloat) refers to deqf.o(x$fpl$deqf) for __aeabi_cdcmpeq
    narrow.o(i.__mathlib_tofloat) refers to d2f.o(x$fpl$d2f) for __aeabi_d2f
    narrow.o(i.__mathlib_tofloat) refers to _rserrno.o(.text) for __set_errno
    narrow.o(i.__mathlib_tofloat) refers to drleqf.o(x$fpl$drleqf) for __aeabi_cdrcmple
    narrow.o(i.__softfp___mathlib_tofloat) refers (Special) to usenofp.o(x$fpl$usenofp) for __I$use$fp
    narrow.o(i.__softfp___mathlib_tofloat) refers to frexp.o(i.frexp) for frexp
    narrow.o(i.__softfp___mathlib_tofloat) refers to deqf.o(x$fpl$deqf) for __aeabi_cdcmpeq
    narrow.o(i.__softfp___mathlib_tofloat) refers to d2f.o(x$fpl$d2f) for __aeabi_d2f
    narrow.o(i.__softfp___mathlib_tofloat) refers to _rserrno.o(.text) for __set_errno
    narrow.o(i.__softfp___mathlib_tofloat) refers to drleqf.o(x$fpl$drleqf) for __aeabi_cdrcmple
    sys_stackheap_outer.o(.text) refers to libspace.o(.text) for __user_perproc_libspace
    sys_stackheap_outer.o(.text) refers to startup_stm32f40_41xxx.o(.text) for __user_initial_stackheap
    rt_div0.o(.text) refers to defsig_fpe_outer.o(.text) for __rt_SIGFPE
    rt_raise.o(.text) refers to __raise.o(.text) for __raise
    rt_raise.o(.text) refers to usart.o(.text) for _sys_exit
    term_alloc.o(.text) refers (Special) to libshutdown2.o(.ARM.Collect$$libshutdown$$0000000D) for __rt_lib_shutdown_heap_2
    term_alloc.o(.text) refers to rt_heap_descriptor_intlibspace.o(.text) for __rt_heap_descriptor
    term_alloc.o(.text) refers to h1_final.o(.text) for __Heap_Finalize
    scanf_hexfp.o(.text) refers to _chval.o(.text) for _chval
    scanf_hexfp.o(.text) refers to llshl.o(.text) for __aeabi_llsl
    scanf_hexfp.o(.text) refers to ldexp.o(i.__support_ldexp) for __support_ldexp
    scanf_hexfp.o(.text) refers to narrow.o(i.__mathlib_narrow) for __mathlib_narrow
    exit.o(.text) refers to rtexit.o(.ARM.Collect$$rtexit$$00000000) for __rt_exit
    defsig_exit.o(.text) refers to usart.o(.text) for _sys_exit
    defsig_rtmem_inner.o(.text) refers to defsig_general.o(.text) for __default_signal_display
    _get_argv_nomalloc.o(.text) refers (Special) to hrguard.o(.text) for __heap_region$guard
    _get_argv_nomalloc.o(.text) refers to defsig_rtmem_outer.o(.text) for __rt_SIGRTMEM
    _get_argv_nomalloc.o(.text) refers to sys_command.o(.text) for _sys_command_string
    libinit.o(.ARM.Collect$$libinit$$00000000) refers (Special) to libinit2.o(.ARM.Collect$$libinit$$0000002E) for __rt_lib_init_alloca_1
    libinit.o(.ARM.Collect$$libinit$$00000000) refers (Special) to libinit2.o(.ARM.Collect$$libinit$$0000002C) for __rt_lib_init_argv_1
    libinit.o(.ARM.Collect$$libinit$$00000000) refers (Special) to libinit2.o(.ARM.Collect$$libinit$$0000001B) for __rt_lib_init_atexit_1
    libinit.o(.ARM.Collect$$libinit$$00000000) refers (Special) to libinit2.o(.ARM.Collect$$libinit$$00000021) for __rt_lib_init_clock_1
    libinit.o(.ARM.Collect$$libinit$$00000000) refers (Special) to libinit2.o(.ARM.Collect$$libinit$$00000032) for __rt_lib_init_cpp_1
    libinit.o(.ARM.Collect$$libinit$$00000000) refers (Special) to libinit2.o(.ARM.Collect$$libinit$$00000030) for __rt_lib_init_exceptions_1
    libinit.o(.ARM.Collect$$libinit$$00000000) refers (Special) to libinit2.o(.ARM.Collect$$libinit$$00000001) for __rt_lib_init_fp_1
    libinit.o(.ARM.Collect$$libinit$$00000000) refers (Special) to libinit2.o(.ARM.Collect$$libinit$$0000001F) for __rt_lib_init_fp_trap_1
    libinit.o(.ARM.Collect$$libinit$$00000000) refers (Special) to libinit2.o(.ARM.Collect$$libinit$$00000023) for __rt_lib_init_getenv_1
    libinit.o(.ARM.Collect$$libinit$$00000000) refers (Special) to libinit2.o(.ARM.Collect$$libinit$$0000000A) for __rt_lib_init_heap_1
    libinit.o(.ARM.Collect$$libinit$$00000000) refers (Special) to libinit2.o(.ARM.Collect$$libinit$$00000011) for __rt_lib_init_lc_collate_1
    libinit.o(.ARM.Collect$$libinit$$00000000) refers (Special) to libinit2.o(.ARM.Collect$$libinit$$00000013) for __rt_lib_init_lc_ctype_1
    libinit.o(.ARM.Collect$$libinit$$00000000) refers (Special) to libinit2.o(.ARM.Collect$$libinit$$00000015) for __rt_lib_init_lc_monetary_1
    libinit.o(.ARM.Collect$$libinit$$00000000) refers (Special) to libinit2.o(.ARM.Collect$$libinit$$00000017) for __rt_lib_init_lc_numeric_1
    libinit.o(.ARM.Collect$$libinit$$00000000) refers (Special) to libinit2.o(.ARM.Collect$$libinit$$00000019) for __rt_lib_init_lc_time_1
    libinit.o(.ARM.Collect$$libinit$$00000000) refers (Special) to libinit2.o(.ARM.Collect$$libinit$$00000004) for __rt_lib_init_preinit_1
    libinit.o(.ARM.Collect$$libinit$$00000000) refers (Special) to libinit2.o(.ARM.Collect$$libinit$$0000000E) for __rt_lib_init_rand_1
    libinit.o(.ARM.Collect$$libinit$$00000000) refers (Special) to libinit2.o(.ARM.Collect$$libinit$$00000033) for __rt_lib_init_return
    libinit.o(.ARM.Collect$$libinit$$00000000) refers (Special) to libinit2.o(.ARM.Collect$$libinit$$0000001D) for __rt_lib_init_signal_1
    libinit.o(.ARM.Collect$$libinit$$00000000) refers (Special) to libinit2.o(.ARM.Collect$$libinit$$00000025) for __rt_lib_init_stdio_1
    libinit.o(.ARM.Collect$$libinit$$00000000) refers (Special) to libinit2.o(.ARM.Collect$$libinit$$0000000C) for __rt_lib_init_user_alloc_1
    retnan.o(x$fpl$retnan) refers (Special) to usenofp.o(x$fpl$usenofp) for __I$use$fp
    retnan.o(x$fpl$retnan) refers to trapv.o(x$fpl$trapveneer) for __fpl_cmpreturn
    frexp.o(i.__hardfp_frexp) refers (Special) to usenofp.o(x$fpl$usenofp) for __I$use$fp
    frexp.o(i.__hardfp_frexp) refers to dmul.o(x$fpl$dmul) for __aeabi_dmul
    frexp.o(i.__softfp_frexp) refers (Special) to usenofp.o(x$fpl$usenofp) for __I$use$fp
    frexp.o(i.__softfp_frexp) refers to dmul.o(x$fpl$dmul) for __aeabi_dmul
    frexp.o(i.frexp) refers (Special) to usenofp.o(x$fpl$usenofp) for __I$use$fp
    frexp.o(i.frexp) refers to dmul.o(x$fpl$dmul) for __aeabi_dmul
    rtexit.o(.ARM.Collect$$rtexit$$00000000) refers (Special) to rtexit2.o(.ARM.Collect$$rtexit$$00000004) for __rt_exit_exit
    rtexit.o(.ARM.Collect$$rtexit$$00000000) refers (Special) to rtexit2.o(.ARM.Collect$$rtexit$$00000003) for __rt_exit_ls
    rtexit.o(.ARM.Collect$$rtexit$$00000000) refers (Special) to rtexit2.o(.ARM.Collect$$rtexit$$00000002) for __rt_exit_prels_1
    rtexit.o(.ARM.exidx) refers (Special) to rtexit2.o(.ARM.Collect$$rtexit$$00000004) for __rt_exit_exit
    rtexit.o(.ARM.exidx) refers (Special) to rtexit2.o(.ARM.Collect$$rtexit$$00000003) for __rt_exit_ls
    rtexit.o(.ARM.exidx) refers (Special) to rtexit2.o(.ARM.Collect$$rtexit$$00000002) for __rt_exit_prels_1
    rtexit.o(.ARM.exidx) refers to rtexit.o(.ARM.Collect$$rtexit$$00000000) for .ARM.Collect$$rtexit$$00000000
    __raise.o(.text) refers to defsig.o(CL$$defsig) for __default_signal_handler
    defsig_general.o(.text) refers to usart.o(.text) for _ttywrch
    defsig_fpe_outer.o(.text) refers to defsig_fpe_inner.o(.text) for __rt_SIGFPE_inner
    defsig_fpe_outer.o(.text) refers to defsig_exit.o(.text) for __sig_exit
    defsig_fpe_formal.o(.text) refers to rt_raise.o(.text) for __rt_raise
    libshutdown2.o(.ARM.Collect$$libshutdown$$0000000C) refers (Weak) to term_alloc.o(.text) for _terminate_alloc
    trapv.o(x$fpl$trapveneer) refers (Special) to usenofp.o(x$fpl$usenofp) for __I$use$fp
    ldexp.o(i.__hardfp_ldexp) refers (Special) to usenofp.o(x$fpl$usenofp) for __I$use$fp
    ldexp.o(i.__hardfp_ldexp) refers to deqf.o(x$fpl$deqf) for __aeabi_cdcmpeq
    ldexp.o(i.__hardfp_ldexp) refers to scalbn.o(x$fpl$scalbn) for __ARM_scalbn
    ldexp.o(i.__hardfp_ldexp) refers to _rserrno.o(.text) for __set_errno
    ldexp.o(i.__hardfp_ldexp) refers to dunder.o(i.__mathlib_dbl_underflow) for __mathlib_dbl_underflow
    ldexp.o(i.__hardfp_ldexp) refers to dunder.o(i.__mathlib_dbl_overflow) for __mathlib_dbl_overflow
    ldexp.o(i.__softfp_ldexp) refers (Special) to usenofp.o(x$fpl$usenofp) for __I$use$fp
    ldexp.o(i.__softfp_ldexp) refers to ldexp.o(i.__hardfp_ldexp) for __hardfp_ldexp
    ldexp.o(i.__support_ldexp) refers (Special) to usenofp.o(x$fpl$usenofp) for __I$use$fp
    ldexp.o(i.__support_ldexp) refers to ldexp.o(i.__hardfp_ldexp) for __hardfp_ldexp
    ldexp.o(i.ldexp) refers (Special) to usenofp.o(x$fpl$usenofp) for __I$use$fp
    ldexp.o(i.ldexp) refers to ldexp.o(i.__hardfp_ldexp) for __hardfp_ldexp
    ldexp_x.o(i.____hardfp_ldexp$lsc) refers (Special) to usenofp.o(x$fpl$usenofp) for __I$use$fp
    ldexp_x.o(i.____hardfp_ldexp$lsc) refers to deqf.o(x$fpl$deqf) for __aeabi_cdcmpeq
    ldexp_x.o(i.____hardfp_ldexp$lsc) refers to scalbn.o(x$fpl$scalbn) for __ARM_scalbn
    ldexp_x.o(i.____hardfp_ldexp$lsc) refers to _rserrno.o(.text) for __set_errno
    ldexp_x.o(i.____hardfp_ldexp$lsc) refers to qnan.o(.constdata) for __mathlib_zero
    ldexp_x.o(i.____softfp_ldexp$lsc) refers (Special) to usenofp.o(x$fpl$usenofp) for __I$use$fp
    ldexp_x.o(i.____softfp_ldexp$lsc) refers to ldexp_x.o(i.____hardfp_ldexp$lsc) for ____hardfp_ldexp$lsc
    ldexp_x.o(i.____support_ldexp$lsc) refers (Special) to usenofp.o(x$fpl$usenofp) for __I$use$fp
    ldexp_x.o(i.____support_ldexp$lsc) refers to ldexp_x.o(i.____hardfp_ldexp$lsc) for ____hardfp_ldexp$lsc
    ldexp_x.o(i.__ldexp$lsc) refers (Special) to usenofp.o(x$fpl$usenofp) for __I$use$fp
    ldexp_x.o(i.__ldexp$lsc) refers to ldexp_x.o(i.____hardfp_ldexp$lsc) for ____hardfp_ldexp$lsc
    rtexit2.o(.ARM.Collect$$rtexit$$00000003) refers to libshutdown.o(.ARM.Collect$$libshutdown$$00000000) for __rt_lib_shutdown
    rtexit2.o(.ARM.Collect$$rtexit$$00000004) refers to usart.o(.text) for _sys_exit
    rtexit2.o(.ARM.exidx) refers to rtexit2.o(.ARM.Collect$$rtexit$$00000001) for .ARM.Collect$$rtexit$$00000001
    rtexit2.o(.ARM.exidx) refers to rtexit2.o(.ARM.Collect$$rtexit$$00000003) for .ARM.Collect$$rtexit$$00000003
    rtexit2.o(.ARM.exidx) refers to rtexit2.o(.ARM.Collect$$rtexit$$00000004) for .ARM.Collect$$rtexit$$00000004
    defsig_fpe_inner.o(.text) refers to defsig_general.o(.text) for __default_signal_display
    defsig.o(CL$$defsig) refers to defsig_fpe_inner.o(.text) for __rt_SIGFPE_inner
    defsig.o(CL$$defsig) refers to defsig_rtmem_inner.o(.text) for __rt_SIGRTMEM_inner
    defsig_abrt_inner.o(.text) refers to defsig_general.o(.text) for __default_signal_display
    defsig_rtred_inner.o(.text) refers to defsig_general.o(.text) for __default_signal_display
    defsig_stak_inner.o(.text) refers to defsig_general.o(.text) for __default_signal_display
    defsig_pvfn_inner.o(.text) refers to defsig_general.o(.text) for __default_signal_display
    defsig_cppl_inner.o(.text) refers to defsig_general.o(.text) for __default_signal_display
    defsig_segv_inner.o(.text) refers to defsig_general.o(.text) for __default_signal_display
    defsig_other.o(.text) refers to defsig_general.o(.text) for __default_signal_display
    libshutdown.o(.ARM.Collect$$libshutdown$$00000000) refers (Special) to libshutdown2.o(.ARM.Collect$$libshutdown$$00000006) for __rt_lib_shutdown_fp_trap_1
    libshutdown.o(.ARM.Collect$$libshutdown$$00000000) refers (Special) to libshutdown2.o(.ARM.Collect$$libshutdown$$0000000E) for __rt_lib_shutdown_heap_1
    libshutdown.o(.ARM.Collect$$libshutdown$$00000000) refers (Special) to libshutdown2.o(.ARM.Collect$$libshutdown$$0000000F) for __rt_lib_shutdown_return
    libshutdown.o(.ARM.Collect$$libshutdown$$00000000) refers (Special) to libshutdown2.o(.ARM.Collect$$libshutdown$$00000009) for __rt_lib_shutdown_signal_1
    libshutdown.o(.ARM.Collect$$libshutdown$$00000000) refers (Special) to libshutdown2.o(.ARM.Collect$$libshutdown$$00000003) for __rt_lib_shutdown_stdio_1
    libshutdown.o(.ARM.Collect$$libshutdown$$00000000) refers (Special) to libshutdown2.o(.ARM.Collect$$libshutdown$$0000000B) for __rt_lib_shutdown_user_alloc_1


==============================================================================

Removing Unused input sections from the image.

    Removing main.o(.rev16_text), (4 bytes).
    Removing main.o(.revsh_text), (4 bytes).
    Removing stm32f4xx_it.o(.rev16_text), (4 bytes).
    Removing stm32f4xx_it.o(.revsh_text), (4 bytes).
    Removing system_stm32f4xx.o(.rev16_text), (4 bytes).
    Removing system_stm32f4xx.o(.revsh_text), (4 bytes).
    Removing user_task.o(.rev16_text), (4 bytes).
    Removing user_task.o(.revsh_text), (4 bytes).
    Removing cjson.o(.rev16_text), (4 bytes).
    Removing cjson.o(.revsh_text), (4 bytes).
    Removing mystring.o(.rev16_text), (4 bytes).
    Removing mystring.o(.revsh_text), (4 bytes).
    Removing hardcontrol.o(.rev16_text), (4 bytes).
    Removing hardcontrol.o(.revsh_text), (4 bytes).
    Removing led.o(.rev16_text), (4 bytes).
    Removing led.o(.revsh_text), (4 bytes).
    Removing cmd_queue.o(.rev16_text), (4 bytes).
    Removing cmd_queue.o(.revsh_text), (4 bytes).
    Removing hmi_driver.o(.rev16_text), (4 bytes).
    Removing hmi_driver.o(.revsh_text), (4 bytes).
    Removing hmi_user_uart.o(.rev16_text), (4 bytes).
    Removing hmi_user_uart.o(.revsh_text), (4 bytes).
    Removing cmd_process.o(.rev16_text), (4 bytes).
    Removing cmd_process.o(.revsh_text), (4 bytes).
    Removing iwdg.o(.rev16_text), (4 bytes).
    Removing iwdg.o(.revsh_text), (4 bytes).
    Removing uart_rfid.o(.rev16_text), (4 bytes).
    Removing uart_rfid.o(.revsh_text), (4 bytes).
    Removing ads126x.o(.rev16_text), (4 bytes).
    Removing ads126x.o(.revsh_text), (4 bytes).
    Removing math_helper.o(.rev16_text), (4 bytes).
    Removing math_helper.o(.revsh_text), (4 bytes).
    Removing math_helper.o(.text), (1500 bytes).
    Removing load_sensor.o(.rev16_text), (4 bytes).
    Removing load_sensor.o(.revsh_text), (4 bytes).
    Removing my_spi.o(.rev16_text), (4 bytes).
    Removing my_spi.o(.revsh_text), (4 bytes).
    Removing timer.o(.rev16_text), (4 bytes).
    Removing timer.o(.revsh_text), (4 bytes).
    Removing timer.o(.text), (184 bytes).
    Removing can.o(.rev16_text), (4 bytes).
    Removing can.o(.revsh_text), (4 bytes).
    Removing 24cxx.o(.rev16_text), (4 bytes).
    Removing 24cxx.o(.revsh_text), (4 bytes).
    Removing myiic.o(.rev16_text), (4 bytes).
    Removing myiic.o(.revsh_text), (4 bytes).
    Removing croutine.o(.rev16_text), (4 bytes).
    Removing croutine.o(.revsh_text), (4 bytes).
    Removing event_groups.o(.rev16_text), (4 bytes).
    Removing event_groups.o(.revsh_text), (4 bytes).
    Removing list.o(.rev16_text), (4 bytes).
    Removing list.o(.revsh_text), (4 bytes).
    Removing queue.o(.rev16_text), (4 bytes).
    Removing queue.o(.revsh_text), (4 bytes).
    Removing tasks.o(.rev16_text), (4 bytes).
    Removing tasks.o(.revsh_text), (4 bytes).
    Removing timers.o(.rev16_text), (4 bytes).
    Removing timers.o(.revsh_text), (4 bytes).
    Removing port.o(.rev16_text), (4 bytes).
    Removing port.o(.revsh_text), (4 bytes).
    Removing heap_5.o(.rev16_text), (4 bytes).
    Removing heap_5.o(.revsh_text), (4 bytes).
    Removing diskio.o(.rev16_text), (4 bytes).
    Removing diskio.o(.revsh_text), (4 bytes).
    Removing ff.o(.rev16_text), (4 bytes).
    Removing ff.o(.revsh_text), (4 bytes).
    Removing ffsystem.o(.rev16_text), (4 bytes).
    Removing ffsystem.o(.revsh_text), (4 bytes).
    Removing ffunicode.o(.rev16_text), (4 bytes).
    Removing ffunicode.o(.revsh_text), (4 bytes).
    Removing exfuns.o(.rev16_text), (4 bytes).
    Removing exfuns.o(.revsh_text), (4 bytes).
    Removing exfuns.o(.bss), (888 bytes).
    Removing sdio_sdcard.o(.rev16_text), (4 bytes).
    Removing sdio_sdcard.o(.revsh_text), (4 bytes).
    Removing misc.o(.rev16_text), (4 bytes).
    Removing misc.o(.revsh_text), (4 bytes).
    Removing stm32f4xx_gpio.o(.rev16_text), (4 bytes).
    Removing stm32f4xx_gpio.o(.revsh_text), (4 bytes).
    Removing stm32f4xx_rcc.o(.rev16_text), (4 bytes).
    Removing stm32f4xx_rcc.o(.revsh_text), (4 bytes).
    Removing stm32f4xx_syscfg.o(.rev16_text), (4 bytes).
    Removing stm32f4xx_syscfg.o(.revsh_text), (4 bytes).
    Removing stm32f4xx_usart.o(.rev16_text), (4 bytes).
    Removing stm32f4xx_usart.o(.revsh_text), (4 bytes).
    Removing stm32f4xx_exti.o(.rev16_text), (4 bytes).
    Removing stm32f4xx_exti.o(.revsh_text), (4 bytes).
    Removing stm32f4xx_tim.o(.rev16_text), (4 bytes).
    Removing stm32f4xx_tim.o(.revsh_text), (4 bytes).
    Removing stm32f4xx_tim.o(.text), (3234 bytes).
    Removing stm32f4xx_fsmc.o(.rev16_text), (4 bytes).
    Removing stm32f4xx_fsmc.o(.revsh_text), (4 bytes).
    Removing stm32f4xx_fsmc.o(.text), (1480 bytes).
    Removing stm32f4xx_fsmc.o(.constdata), (28 bytes).
    Removing stm32f4xx_sdio.o(.rev16_text), (4 bytes).
    Removing stm32f4xx_sdio.o(.revsh_text), (4 bytes).
    Removing stm32f4xx_dma.o(.rev16_text), (4 bytes).
    Removing stm32f4xx_dma.o(.revsh_text), (4 bytes).
    Removing stm32f4xx_can.o(.rev16_text), (4 bytes).
    Removing stm32f4xx_can.o(.revsh_text), (4 bytes).
    Removing stm32f4xx_i2c.o(.rev16_text), (4 bytes).
    Removing stm32f4xx_i2c.o(.revsh_text), (4 bytes).
    Removing stm32f4xx_i2c.o(.text), (1110 bytes).
    Removing stm32f4xx_iwdg.o(.rev16_text), (4 bytes).
    Removing stm32f4xx_iwdg.o(.revsh_text), (4 bytes).
    Removing delay.o(.rev16_text), (4 bytes).
    Removing delay.o(.revsh_text), (4 bytes).
    Removing sys.o(.rev16_text), (4 bytes).
    Removing sys.o(.revsh_text), (4 bytes).
    Removing usart.o(.rev16_text), (4 bytes).
    Removing usart.o(.revsh_text), (4 bytes).
    Removing sram.o(.rev16_text), (4 bytes).
    Removing sram.o(.revsh_text), (4 bytes).
    Removing sram.o(.text), (796 bytes).

114 unused section(s) (total 9644 bytes) removed from the image.

==============================================================================

Image Symbol Table

    Local Symbols

    Symbol Name                              Value     Ov Type        Size  Object(Section)

    ../clib/angel/boardlib.s                 0x00000000   Number         0  boardinit2.o ABSOLUTE
    ../clib/angel/boardlib.s                 0x00000000   Number         0  boardinit1.o ABSOLUTE
    ../clib/angel/boardlib.s                 0x00000000   Number         0  boardshut.o ABSOLUTE
    ../clib/angel/boardlib.s                 0x00000000   Number         0  boardinit3.o ABSOLUTE
    ../clib/angel/dczerorl2.s                0x00000000   Number         0  __dczerorl2.o ABSOLUTE
    ../clib/angel/handlers.s                 0x00000000   Number         0  __scatter_zi.o ABSOLUTE
    ../clib/angel/kernel.s                   0x00000000   Number         0  __rtentry.o ABSOLUTE
    ../clib/angel/kernel.s                   0x00000000   Number         0  rtexit.o ABSOLUTE
    ../clib/angel/kernel.s                   0x00000000   Number         0  __rtentry2.o ABSOLUTE
    ../clib/angel/kernel.s                   0x00000000   Number         0  rtexit2.o ABSOLUTE
    ../clib/angel/kernel.s                   0x00000000   Number         0  __rtentry4.o ABSOLUTE
    ../clib/angel/rt.s                       0x00000000   Number         0  rt_errno_addr_intlibspace.o ABSOLUTE
    ../clib/angel/rt.s                       0x00000000   Number         0  rt_errno_addr.o ABSOLUTE
    ../clib/angel/rt.s                       0x00000000   Number         0  rt_locale_intlibspace.o ABSOLUTE
    ../clib/angel/rt.s                       0x00000000   Number         0  rt_raise.o ABSOLUTE
    ../clib/angel/rt.s                       0x00000000   Number         0  rt_locale.o ABSOLUTE
    ../clib/angel/rt.s                       0x00000000   Number         0  rt_div0.o ABSOLUTE
    ../clib/angel/rt.s                       0x00000000   Number         0  rt_heap_descriptor_intlibspace.o ABSOLUTE
    ../clib/angel/rt.s                       0x00000000   Number         0  rt_heap_descriptor.o ABSOLUTE
    ../clib/angel/rt.s                       0x00000000   Number         0  aeabi_ldiv0.o ABSOLUTE
    ../clib/angel/rt.s                       0x00000000   Number         0  rt_ctype_table.o ABSOLUTE
    ../clib/angel/rt.s                       0x00000000   Number         0  aeabi_ldiv0_sigfpe.o ABSOLUTE
    ../clib/angel/scatter.s                  0x00000000   Number         0  __scatter.o ABSOLUTE
    ../clib/angel/startup.s                  0x00000000   Number         0  __main.o ABSOLUTE
    ../clib/angel/sys.s                      0x00000000   Number         0  sys_stackheap_outer.o ABSOLUTE
    ../clib/angel/sys.s                      0x00000000   Number         0  use_no_semi_2.o ABSOLUTE
    ../clib/angel/sys.s                      0x00000000   Number         0  libspace.o ABSOLUTE
    ../clib/angel/sys.s                      0x00000000   Number         0  mutex_dummy.o ABSOLUTE
    ../clib/angel/sys.s                      0x00000000   Number         0  use_no_semi.o ABSOLUTE
    ../clib/angel/sys.s                      0x00000000   Number         0  indicate_semi.o ABSOLUTE
    ../clib/angel/sysapp.c                   0x00000000   Number         0  sys_command.o ABSOLUTE
    ../clib/armsys.c                         0x00000000   Number         0  _get_argv.o ABSOLUTE
    ../clib/armsys.c                         0x00000000   Number         0  argv_veneer.o ABSOLUTE
    ../clib/armsys.c                         0x00000000   Number         0  argv_veneer.o ABSOLUTE
    ../clib/armsys.c                         0x00000000   Number         0  _get_argv_nomalloc.o ABSOLUTE
    ../clib/armsys.c                         0x00000000   Number         0  no_argv.o ABSOLUTE
    ../clib/bigflt.c                         0x00000000   Number         0  bigflt0.o ABSOLUTE
    ../clib/btod.s                           0x00000000   Number         0  btod.o ABSOLUTE
    ../clib/ctype.c                          0x00000000   Number         0  isspace.o ABSOLUTE
    ../clib/ctype.c                          0x00000000   Number         0  tolower.o ABSOLUTE
    ../clib/fenv.c                           0x00000000   Number         0  _rserrno.o ABSOLUTE
    ../clib/heap1.c                          0x00000000   Number         0  h1_extend_mt.o ABSOLUTE
    ../clib/heap1.c                          0x00000000   Number         0  h1_alloc.o ABSOLUTE
    ../clib/heap1.c                          0x00000000   Number         0  h1_alloc_mt.o ABSOLUTE
    ../clib/heap1.c                          0x00000000   Number         0  h1_final.o ABSOLUTE
    ../clib/heap1.c                          0x00000000   Number         0  h1_final_mt.o ABSOLUTE
    ../clib/heap1.c                          0x00000000   Number         0  h1_free.o ABSOLUTE
    ../clib/heap1.c                          0x00000000   Number         0  h1_extend.o ABSOLUTE
    ../clib/heap1.c                          0x00000000   Number         0  h1_init_mt.o ABSOLUTE
    ../clib/heap1.c                          0x00000000   Number         0  h1_init.o ABSOLUTE
    ../clib/heap1.c                          0x00000000   Number         0  h1_free_mt.o ABSOLUTE
    ../clib/heap2.c                          0x00000000   Number         0  heap2mt.o ABSOLUTE
    ../clib/heap2.c                          0x00000000   Number         0  fdtree.o ABSOLUTE
    ../clib/heap2.c                          0x00000000   Number         0  heap2.o ABSOLUTE
    ../clib/heapalloc.c                      0x00000000   Number         0  heapstubs.o ABSOLUTE
    ../clib/heapalloc.c                      0x00000000   Number         0  maybetermalloc2.o ABSOLUTE
    ../clib/heapalloc.c                      0x00000000   Number         0  maybetermalloc2.o ABSOLUTE
    ../clib/heapalloc.c                      0x00000000   Number         0  free.o ABSOLUTE
    ../clib/heapalloc.c                      0x00000000   Number         0  term_alloc.o ABSOLUTE
    ../clib/heapalloc.c                      0x00000000   Number         0  maybetermalloc1.o ABSOLUTE
    ../clib/heapalloc.c                      0x00000000   Number         0  hrguard.o ABSOLUTE
    ../clib/heapalloc.c                      0x00000000   Number         0  malloc.o ABSOLUTE
    ../clib/heapalloc.c                      0x00000000   Number         0  maybetermalloc1.o ABSOLUTE
    ../clib/heapalloc.c                      0x00000000   Number         0  hguard.o ABSOLUTE
    ../clib/heapalloc.c                      0x00000000   Number         0  init_alloc.o ABSOLUTE
    ../clib/heapaux.c                        0x00000000   Number         0  heapauxi.o ABSOLUTE
    ../clib/heapaux.c                        0x00000000   Number         0  heapauxa.o ABSOLUTE
    ../clib/libinit.s                        0x00000000   Number         0  libshutdown2.o ABSOLUTE
    ../clib/libinit.s                        0x00000000   Number         0  libinit2.o ABSOLUTE
    ../clib/libinit.s                        0x00000000   Number         0  libinit.o ABSOLUTE
    ../clib/libinit.s                        0x00000000   Number         0  libshutdown.o ABSOLUTE
    ../clib/locale.c                         0x00000000   Number         0  _wcrtomb.o ABSOLUTE
    ../clib/locale.s                         0x00000000   Number         0  lc_numeric_c.o ABSOLUTE
    ../clib/locale.s                         0x00000000   Number         0  lc_ctype_c.o ABSOLUTE
    ../clib/longlong.s                       0x00000000   Number         0  llsdiv.o ABSOLUTE
    ../clib/longlong.s                       0x00000000   Number         0  lludiv10.o ABSOLUTE
    ../clib/longlong.s                       0x00000000   Number         0  llshl.o ABSOLUTE
    ../clib/longlong.s                       0x00000000   Number         0  lludivv7m.o ABSOLUTE
    ../clib/memcpset.s                       0x00000000   Number         0  rt_memcpy_w.o ABSOLUTE
    ../clib/memcpset.s                       0x00000000   Number         0  rt_memcpy_v6.o ABSOLUTE
    ../clib/memcpset.s                       0x00000000   Number         0  rt_memclr.o ABSOLUTE
    ../clib/memcpset.s                       0x00000000   Number         0  strncpy.o ABSOLUTE
    ../clib/memcpset.s                       0x00000000   Number         0  strcmpv7m.o ABSOLUTE
    ../clib/memcpset.s                       0x00000000   Number         0  rt_memclr_w.o ABSOLUTE
    ../clib/memcpset.s                       0x00000000   Number         0  aeabi_memset.o ABSOLUTE
    ../clib/misc.s                           0x00000000   Number         0  printf_stubs.o ABSOLUTE
    ../clib/printf.c                         0x00000000   Number         0  _snputc.o ABSOLUTE
    ../clib/printf.c                         0x00000000   Number         0  _sputc.o ABSOLUTE
    ../clib/printf.c                         0x00000000   Number         0  _printf_char_common.o ABSOLUTE
    ../clib/printf.c                         0x00000000   Number         0  _printf_fp_dec.o ABSOLUTE
    ../clib/printf.c                         0x00000000   Number         0  _printf_charcount.o ABSOLUTE
    ../clib/printf.c                         0x00000000   Number         0  _printf_intcommon.o ABSOLUTE
    ../clib/printf.c                         0x00000000   Number         0  _printf_truncate.o ABSOLUTE
    ../clib/printf.c                         0x00000000   Number         0  __printf_flags.o ABSOLUTE
    ../clib/printf.c                         0x00000000   Number         0  _printf_fp_hex.o ABSOLUTE
    ../clib/printf.c                         0x00000000   Number         0  _printf_fp_infnan.o ABSOLUTE
    ../clib/printf.c                         0x00000000   Number         0  __printf_nopercent.o ABSOLUTE
    ../clib/printf.c                         0x00000000   Number         0  _printf_wchar.o ABSOLUTE
    ../clib/printf.c                         0x00000000   Number         0  _printf_hex_int_ptr.o ABSOLUTE
    ../clib/printf.c                         0x00000000   Number         0  _printf_char.o ABSOLUTE
    ../clib/printf.c                         0x00000000   Number         0  __printf_wp.o ABSOLUTE
    ../clib/printf.c                         0x00000000   Number         0  __printf_flags_wp.o ABSOLUTE
    ../clib/printf.c                         0x00000000   Number         0  __printf_ss_wp.o ABSOLUTE
    ../clib/printf.c                         0x00000000   Number         0  _printf_hex_ll_ptr.o ABSOLUTE
    ../clib/printf.c                         0x00000000   Number         0  _printf_oct_int_ll.o ABSOLUTE
    ../clib/printf.c                         0x00000000   Number         0  _printf_oct_int.o ABSOLUTE
    ../clib/printf.c                         0x00000000   Number         0  _printf_oct_ll.o ABSOLUTE
    ../clib/printf.c                         0x00000000   Number         0  _printf_longlong_dec.o ABSOLUTE
    ../clib/printf.c                         0x00000000   Number         0  _printf_wctomb.o ABSOLUTE
    ../clib/printf.c                         0x00000000   Number         0  _printf_char_file.o ABSOLUTE
    ../clib/printf.c                         0x00000000   Number         0  _printf_hex_int_ll_ptr.o ABSOLUTE
    ../clib/printf.c                         0x00000000   Number         0  vsnprintf.o ABSOLUTE
    ../clib/printf.c                         0x00000000   Number         0  __2printf.o ABSOLUTE
    ../clib/printf.c                         0x00000000   Number         0  __2sprintf.o ABSOLUTE
    ../clib/printf.c                         0x00000000   Number         0  noretval__2printf.o ABSOLUTE
    ../clib/printf.c                         0x00000000   Number         0  noretval__2sprintf.o ABSOLUTE
    ../clib/printf.c                         0x00000000   Number         0  __printf.o ABSOLUTE
    ../clib/printf.c                         0x00000000   Number         0  _printf_pad.o ABSOLUTE
    ../clib/printf.c                         0x00000000   Number         0  _printf_str.o ABSOLUTE
    ../clib/printf.c                         0x00000000   Number         0  _printf_dec.o ABSOLUTE
    ../clib/printf.c                         0x00000000   Number         0  __printf_flags_ss_wp.o ABSOLUTE
    ../clib/printf.c                         0x00000000   Number         0  _printf_hex_ll.o ABSOLUTE
    ../clib/printf.c                         0x00000000   Number         0  _printf_hex_int.o ABSOLUTE
    ../clib/printf.c                         0x00000000   Number         0  _printf_hex_int_ll.o ABSOLUTE
    ../clib/printf.c                         0x00000000   Number         0  _printf_hex_ptr.o ABSOLUTE
    ../clib/printf.c                         0x00000000   Number         0  __printf_ss.o ABSOLUTE
    ../clib/printf.c                         0x00000000   Number         0  __printf_flags_ss.o ABSOLUTE
    ../clib/printf_percent.s                 0x00000000   Number         0  _printf_e.o ABSOLUTE
    ../clib/printf_percent.s                 0x00000000   Number         0  _printf_s.o ABSOLUTE
    ../clib/printf_percent.s                 0x00000000   Number         0  _printf_ls.o ABSOLUTE
    ../clib/printf_percent.s                 0x00000000   Number         0  _printf_c.o ABSOLUTE
    ../clib/printf_percent.s                 0x00000000   Number         0  _printf_percent.o ABSOLUTE
    ../clib/printf_percent.s                 0x00000000   Number         0  _printf_n.o ABSOLUTE
    ../clib/printf_percent.s                 0x00000000   Number         0  _printf_p.o ABSOLUTE
    ../clib/printf_percent.s                 0x00000000   Number         0  _printf_llo.o ABSOLUTE
    ../clib/printf_percent.s                 0x00000000   Number         0  _printf_o.o ABSOLUTE
    ../clib/printf_percent.s                 0x00000000   Number         0  _printf_i.o ABSOLUTE
    ../clib/printf_percent.s                 0x00000000   Number         0  _printf_a.o ABSOLUTE
    ../clib/printf_percent.s                 0x00000000   Number         0  _printf_g.o ABSOLUTE
    ../clib/printf_percent.s                 0x00000000   Number         0  _printf_percent_end.o ABSOLUTE
    ../clib/printf_percent.s                 0x00000000   Number         0  _printf_f.o ABSOLUTE
    ../clib/printf_percent.s                 0x00000000   Number         0  _printf_lli.o ABSOLUTE
    ../clib/printf_percent.s                 0x00000000   Number         0  _printf_u.o ABSOLUTE
    ../clib/printf_percent.s                 0x00000000   Number         0  _printf_lld.o ABSOLUTE
    ../clib/printf_percent.s                 0x00000000   Number         0  _printf_d.o ABSOLUTE
    ../clib/printf_percent.s                 0x00000000   Number         0  _printf_llu.o ABSOLUTE
    ../clib/printf_percent.s                 0x00000000   Number         0  _printf_x.o ABSOLUTE
    ../clib/printf_percent.s                 0x00000000   Number         0  _printf_llx.o ABSOLUTE
    ../clib/printf_percent.s                 0x00000000   Number         0  _printf_ll.o ABSOLUTE
    ../clib/printf_percent.s                 0x00000000   Number         0  _printf_l.o ABSOLUTE
    ../clib/printf_percent.s                 0x00000000   Number         0  _printf_lc.o ABSOLUTE
    ../clib/scanf.c                          0x00000000   Number         0  _chval.o ABSOLUTE
    ../clib/scanf.c                          0x00000000   Number         0  _scanf_int.o ABSOLUTE
    ../clib/scanf.c                          0x00000000   Number         0  __0sscanf.o ABSOLUTE
    ../clib/scanf.c                          0x00000000   Number         0  scanf_infnan.o ABSOLUTE
    ../clib/scanf.c                          0x00000000   Number         0  scanf_hexfp.o ABSOLUTE
    ../clib/scanf.c                          0x00000000   Number         0  _scanf.o ABSOLUTE
    ../clib/scanf.c                          0x00000000   Number         0  _sgetc.o ABSOLUTE
    ../clib/scanf.c                          0x00000000   Number         0  scanf_char.o ABSOLUTE
    ../clib/scanf.c                          0x00000000   Number         0  scanf_fp.o ABSOLUTE
    ../clib/signal.c                         0x00000000   Number         0  defsig_exit.o ABSOLUTE
    ../clib/signal.c                         0x00000000   Number         0  defsig_rtmem_outer.o ABSOLUTE
    ../clib/signal.c                         0x00000000   Number         0  defsig_rtmem_formal.o ABSOLUTE
    ../clib/signal.c                         0x00000000   Number         0  defsig_general.o ABSOLUTE
    ../clib/signal.c                         0x00000000   Number         0  defsig_segv_inner.o ABSOLUTE
    ../clib/signal.c                         0x00000000   Number         0  defsig_rtred_inner.o ABSOLUTE
    ../clib/signal.c                         0x00000000   Number         0  defsig_other.o ABSOLUTE
    ../clib/signal.c                         0x00000000   Number         0  defsig_stak_inner.o ABSOLUTE
    ../clib/signal.c                         0x00000000   Number         0  defsig_fpe_formal.o ABSOLUTE
    ../clib/signal.c                         0x00000000   Number         0  defsig_fpe_outer.o ABSOLUTE
    ../clib/signal.c                         0x00000000   Number         0  defsig_rtmem_inner.o ABSOLUTE
    ../clib/signal.c                         0x00000000   Number         0  defsig_abrt_inner.o ABSOLUTE
    ../clib/signal.c                         0x00000000   Number         0  defsig_fpe_inner.o ABSOLUTE
    ../clib/signal.c                         0x00000000   Number         0  __raise.o ABSOLUTE
    ../clib/signal.c                         0x00000000   Number         0  defsig_pvfn_inner.o ABSOLUTE
    ../clib/signal.c                         0x00000000   Number         0  defsig_cppl_inner.o ABSOLUTE
    ../clib/signal.s                         0x00000000   Number         0  defsig.o ABSOLUTE
    ../clib/stdio.c                          0x00000000   Number         0  ferror_locked.o ABSOLUTE
    ../clib/stdio.c                          0x00000000   Number         0  ferror.o ABSOLUTE
    ../clib/stdlib.c                         0x00000000   Number         0  rand.o ABSOLUTE
    ../clib/stdlib.c                         0x00000000   Number         0  exit.o ABSOLUTE
    ../clib/stdlib.c                         0x00000000   Number         0  rand.o ABSOLUTE
    ../clib/string.c                         0x00000000   Number         0  strchr.o ABSOLUTE
    ../clib/string.c                         0x00000000   Number         0  strcpy.o ABSOLUTE
    ../clib/string.c                         0x00000000   Number         0  strncmp.o ABSOLUTE
    ../clib/string.c                         0x00000000   Number         0  strlen.o ABSOLUTE
    ../fplib/basic.s                         0x00000000   Number         0  basic.o ABSOLUTE
    ../fplib/d2f.s                           0x00000000   Number         0  d2f.o ABSOLUTE
    ../fplib/daddsub.s                       0x00000000   Number         0  daddsub_clz.o ABSOLUTE
    ../fplib/dcheck1.s                       0x00000000   Number         0  dcheck1.o ABSOLUTE
    ../fplib/dcmpi.s                         0x00000000   Number         0  dcmpi.o ABSOLUTE
    ../fplib/ddiv.s                          0x00000000   Number         0  ddiv.o ABSOLUTE
    ../fplib/deqf.s                          0x00000000   Number         0  deqf.o ABSOLUTE
    ../fplib/dfix.s                          0x00000000   Number         0  dfix.o ABSOLUTE
    ../fplib/dflt.s                          0x00000000   Number         0  dflt_clz.o ABSOLUTE
    ../fplib/dleqf.s                         0x00000000   Number         0  dleqf.o ABSOLUTE
    ../fplib/dmul.s                          0x00000000   Number         0  dmul.o ABSOLUTE
    ../fplib/dnaninf.s                       0x00000000   Number         0  dnaninf.o ABSOLUTE
    ../fplib/dretinf.s                       0x00000000   Number         0  dretinf.o ABSOLUTE
    ../fplib/drleqf.s                        0x00000000   Number         0  drleqf.o ABSOLUTE
    ../fplib/drnd.s                          0x00000000   Number         0  drnd.o ABSOLUTE
    ../fplib/dsqrt.s                         0x00000000   Number         0  dsqrt_umaal.o ABSOLUTE
    ../fplib/f2d.s                           0x00000000   Number         0  f2d.o ABSOLUTE
    ../fplib/fnaninf.s                       0x00000000   Number         0  fnaninf.o ABSOLUTE
    ../fplib/fpconst.s                       0x00000000   Number         0  fpconst.o ABSOLUTE
    ../fplib/fpinit.s                        0x00000000   Number         0  fpinit.o ABSOLUTE
    ../fplib/fretinf.s                       0x00000000   Number         0  fretinf.o ABSOLUTE
    ../fplib/istatus.s                       0x00000000   Number         0  istatus.o ABSOLUTE
    ../fplib/printf1.s                       0x00000000   Number         0  printf1.o ABSOLUTE
    ../fplib/printf2.s                       0x00000000   Number         0  printf2.o ABSOLUTE
    ../fplib/printf2a.s                      0x00000000   Number         0  printf2a.o ABSOLUTE
    ../fplib/printf2b.s                      0x00000000   Number         0  printf2b.o ABSOLUTE
    ../fplib/retnan.s                        0x00000000   Number         0  retnan.o ABSOLUTE
    ../fplib/scalbn.s                        0x00000000   Number         0  scalbn.o ABSOLUTE
    ../fplib/scanf1.s                        0x00000000   Number         0  scanf1.o ABSOLUTE
    ../fplib/scanf2.s                        0x00000000   Number         0  scanf2.o ABSOLUTE
    ../fplib/scanf2a.s                       0x00000000   Number         0  scanf2a.o ABSOLUTE
    ../fplib/scanf2b.s                       0x00000000   Number         0  scanf2b.o ABSOLUTE
    ../fplib/trapv.s                         0x00000000   Number         0  trapv.o ABSOLUTE
    ../fplib/usenofp.s                       0x00000000   Number         0  usenofp.o ABSOLUTE
    ../mathlib/dunder.c                      0x00000000   Number         0  dunder.o ABSOLUTE
    ../mathlib/fabs.c                        0x00000000   Number         0  fabs.o ABSOLUTE
    ../mathlib/floor.c                       0x00000000   Number         0  floor.o ABSOLUTE
    ../mathlib/fpclassify.c                  0x00000000   Number         0  fpclassify.o ABSOLUTE
    ../mathlib/frexp.c                       0x00000000   Number         0  frexp.o ABSOLUTE
    ../mathlib/ldexp.c                       0x00000000   Number         0  ldexp.o ABSOLUTE
    ../mathlib/ldexp.c                       0x00000000   Number         0  ldexp_x.o ABSOLUTE
    ../mathlib/log.c                         0x00000000   Number         0  log_x.o ABSOLUTE
    ../mathlib/log.c                         0x00000000   Number         0  log.o ABSOLUTE
    ../mathlib/log10.c                       0x00000000   Number         0  log10.o ABSOLUTE
    ../mathlib/log10.c                       0x00000000   Number         0  log10_x.o ABSOLUTE
    ../mathlib/narrow.c                      0x00000000   Number         0  narrow.o ABSOLUTE
    ../mathlib/poly.c                        0x00000000   Number         0  poly.o ABSOLUTE
    ../mathlib/pow.c                         0x00000000   Number         0  pow.o ABSOLUTE
    ../mathlib/pow.c                         0x00000000   Number         0  pow_x.o ABSOLUTE
    ../mathlib/qnan.c                        0x00000000   Number         0  qnan.o ABSOLUTE
    ../mathlib/round.c                       0x00000000   Number         0  round.o ABSOLUTE
    ../mathlib/sqrt.c                        0x00000000   Number         0  sqrt_x.o ABSOLUTE
    ../mathlib/sqrt.c                        0x00000000   Number         0  sqrt.o ABSOLUTE
    ..\CORE\startup_stm32f40_41xxx.s         0x00000000   Number         0  startup_stm32f40_41xxx.o ABSOLUTE
    ..\FWLIB\src\misc.c                      0x00000000   Number         0  misc.o ABSOLUTE
    ..\FWLIB\src\stm32f4xx_can.c             0x00000000   Number         0  stm32f4xx_can.o ABSOLUTE
    ..\FWLIB\src\stm32f4xx_dma.c             0x00000000   Number         0  stm32f4xx_dma.o ABSOLUTE
    ..\FWLIB\src\stm32f4xx_exti.c            0x00000000   Number         0  stm32f4xx_exti.o ABSOLUTE
    ..\FWLIB\src\stm32f4xx_fsmc.c            0x00000000   Number         0  stm32f4xx_fsmc.o ABSOLUTE
    ..\FWLIB\src\stm32f4xx_gpio.c            0x00000000   Number         0  stm32f4xx_gpio.o ABSOLUTE
    ..\FWLIB\src\stm32f4xx_i2c.c             0x00000000   Number         0  stm32f4xx_i2c.o ABSOLUTE
    ..\FWLIB\src\stm32f4xx_iwdg.c            0x00000000   Number         0  stm32f4xx_iwdg.o ABSOLUTE
    ..\FWLIB\src\stm32f4xx_rcc.c             0x00000000   Number         0  stm32f4xx_rcc.o ABSOLUTE
    ..\FWLIB\src\stm32f4xx_sdio.c            0x00000000   Number         0  stm32f4xx_sdio.o ABSOLUTE
    ..\FWLIB\src\stm32f4xx_syscfg.c          0x00000000   Number         0  stm32f4xx_syscfg.o ABSOLUTE
    ..\FWLIB\src\stm32f4xx_tim.c             0x00000000   Number         0  stm32f4xx_tim.o ABSOLUTE
    ..\FWLIB\src\stm32f4xx_usart.c           0x00000000   Number         0  stm32f4xx_usart.o ABSOLUTE
    ..\FreeRTOS\croutine.c                   0x00000000   Number         0  croutine.o ABSOLUTE
    ..\FreeRTOS\event_groups.c               0x00000000   Number         0  event_groups.o ABSOLUTE
    ..\FreeRTOS\list.c                       0x00000000   Number         0  list.o ABSOLUTE
    ..\FreeRTOS\portable\MemMang\heap_5.c    0x00000000   Number         0  heap_5.o ABSOLUTE
    ..\FreeRTOS\portable\RVDS\ARM_CM4F\port.c 0x00000000   Number         0  port.o ABSOLUTE
    ..\FreeRTOS\queue.c                      0x00000000   Number         0  queue.o ABSOLUTE
    ..\FreeRTOS\tasks.c                      0x00000000   Number         0  tasks.o ABSOLUTE
    ..\FreeRTOS\timers.c                     0x00000000   Number         0  timers.o ABSOLUTE
    ..\HARDWARE\24CXX\24cxx.c                0x00000000   Number         0  24cxx.o ABSOLUTE
    ..\HARDWARE\CAN\can.c                    0x00000000   Number         0  can.o ABSOLUTE
    ..\HARDWARE\FATFS\diskio.c               0x00000000   Number         0  diskio.o ABSOLUTE
    ..\HARDWARE\FATFS\exfuns.c               0x00000000   Number         0  exfuns.o ABSOLUTE
    ..\HARDWARE\FATFS\ff.c                   0x00000000   Number         0  ff.o ABSOLUTE
    ..\HARDWARE\FATFS\ffsystem.c             0x00000000   Number         0  ffsystem.o ABSOLUTE
    ..\HARDWARE\FATFS\ffunicode.c            0x00000000   Number         0  ffunicode.o ABSOLUTE
    ..\HARDWARE\HARDCONTROL\hardcontrol.c    0x00000000   Number         0  hardcontrol.o ABSOLUTE
    ..\HARDWARE\IIC\myiic.c                  0x00000000   Number         0  myiic.o ABSOLUTE
    ..\HARDWARE\IWDG\iwdg.c                  0x00000000   Number         0  iwdg.o ABSOLUTE
    ..\HARDWARE\LED\led.c                    0x00000000   Number         0  led.o ABSOLUTE
    ..\HARDWARE\RFID\uart_rfid.c             0x00000000   Number         0  uart_rfid.o ABSOLUTE
    ..\HARDWARE\SDIO\sdio_sdcard.c           0x00000000   Number         0  sdio_sdcard.o ABSOLUTE
    ..\HARDWARE\SRAM\sram.c                  0x00000000   Number         0  sram.o ABSOLUTE
    ..\HARDWARE\TFT\cmd_process.c            0x00000000   Number         0  cmd_process.o ABSOLUTE
    ..\HARDWARE\TFT\cmd_queue.c              0x00000000   Number         0  cmd_queue.o ABSOLUTE
    ..\HARDWARE\TFT\hmi_driver.c             0x00000000   Number         0  hmi_driver.o ABSOLUTE
    ..\HARDWARE\TFT\hmi_user_uart.c          0x00000000   Number         0  hmi_user_uart.o ABSOLUTE
    ..\HARDWARE\WEIGHT\DSP_Lib\math_helper.c 0x00000000   Number         0  math_helper.o ABSOLUTE
    ..\HARDWARE\WEIGHT\Load_Sensor\Load_Sensor.c 0x00000000   Number         0  load_sensor.o ABSOLUTE
    ..\HARDWARE\WEIGHT\TIMER\timer.c         0x00000000   Number         0  timer.o ABSOLUTE
    ..\HARDWARE\WEIGHT\ads1263\ADS126x.c     0x00000000   Number         0  ads126x.o ABSOLUTE
    ..\HARDWARE\WEIGHT\my_spi\my_spi.c       0x00000000   Number         0  my_spi.o ABSOLUTE
    ..\SYSTEM\delay\delay.c                  0x00000000   Number         0  delay.o ABSOLUTE
    ..\SYSTEM\sys\sys.c                      0x00000000   Number         0  sys.o ABSOLUTE
    ..\SYSTEM\usart\usart.c                  0x00000000   Number         0  usart.o ABSOLUTE
    ..\\FWLIB\\src\\misc.c                   0x00000000   Number         0  misc.o ABSOLUTE
    ..\\FWLIB\\src\\stm32f4xx_can.c          0x00000000   Number         0  stm32f4xx_can.o ABSOLUTE
    ..\\FWLIB\\src\\stm32f4xx_dma.c          0x00000000   Number         0  stm32f4xx_dma.o ABSOLUTE
    ..\\FWLIB\\src\\stm32f4xx_exti.c         0x00000000   Number         0  stm32f4xx_exti.o ABSOLUTE
    ..\\FWLIB\\src\\stm32f4xx_fsmc.c         0x00000000   Number         0  stm32f4xx_fsmc.o ABSOLUTE
    ..\\FWLIB\\src\\stm32f4xx_gpio.c         0x00000000   Number         0  stm32f4xx_gpio.o ABSOLUTE
    ..\\FWLIB\\src\\stm32f4xx_i2c.c          0x00000000   Number         0  stm32f4xx_i2c.o ABSOLUTE
    ..\\FWLIB\\src\\stm32f4xx_iwdg.c         0x00000000   Number         0  stm32f4xx_iwdg.o ABSOLUTE
    ..\\FWLIB\\src\\stm32f4xx_rcc.c          0x00000000   Number         0  stm32f4xx_rcc.o ABSOLUTE
    ..\\FWLIB\\src\\stm32f4xx_sdio.c         0x00000000   Number         0  stm32f4xx_sdio.o ABSOLUTE
    ..\\FWLIB\\src\\stm32f4xx_syscfg.c       0x00000000   Number         0  stm32f4xx_syscfg.o ABSOLUTE
    ..\\FWLIB\\src\\stm32f4xx_tim.c          0x00000000   Number         0  stm32f4xx_tim.o ABSOLUTE
    ..\\FWLIB\\src\\stm32f4xx_usart.c        0x00000000   Number         0  stm32f4xx_usart.o ABSOLUTE
    ..\\FreeRTOS\\croutine.c                 0x00000000   Number         0  croutine.o ABSOLUTE
    ..\\FreeRTOS\\event_groups.c             0x00000000   Number         0  event_groups.o ABSOLUTE
    ..\\FreeRTOS\\list.c                     0x00000000   Number         0  list.o ABSOLUTE
    ..\\FreeRTOS\\portable\\MemMang\\heap_5.c 0x00000000   Number         0  heap_5.o ABSOLUTE
    ..\\FreeRTOS\\portable\\RVDS\\ARM_CM4F\\port.c 0x00000000   Number         0  port.o ABSOLUTE
    ..\\FreeRTOS\\queue.c                    0x00000000   Number         0  queue.o ABSOLUTE
    ..\\FreeRTOS\\tasks.c                    0x00000000   Number         0  tasks.o ABSOLUTE
    ..\\FreeRTOS\\timers.c                   0x00000000   Number         0  timers.o ABSOLUTE
    ..\\HARDWARE\\24CXX\\24cxx.c             0x00000000   Number         0  24cxx.o ABSOLUTE
    ..\\HARDWARE\\CAN\\can.c                 0x00000000   Number         0  can.o ABSOLUTE
    ..\\HARDWARE\\FATFS\\diskio.c            0x00000000   Number         0  diskio.o ABSOLUTE
    ..\\HARDWARE\\FATFS\\exfuns.c            0x00000000   Number         0  exfuns.o ABSOLUTE
    ..\\HARDWARE\\FATFS\\ff.c                0x00000000   Number         0  ff.o ABSOLUTE
    ..\\HARDWARE\\FATFS\\ffsystem.c          0x00000000   Number         0  ffsystem.o ABSOLUTE
    ..\\HARDWARE\\FATFS\\ffunicode.c         0x00000000   Number         0  ffunicode.o ABSOLUTE
    ..\\HARDWARE\\HARDCONTROL\\hardcontrol.c 0x00000000   Number         0  hardcontrol.o ABSOLUTE
    ..\\HARDWARE\\IIC\\myiic.c               0x00000000   Number         0  myiic.o ABSOLUTE
    ..\\HARDWARE\\IWDG\\iwdg.c               0x00000000   Number         0  iwdg.o ABSOLUTE
    ..\\HARDWARE\\LED\\led.c                 0x00000000   Number         0  led.o ABSOLUTE
    ..\\HARDWARE\\RFID\\uart_rfid.c          0x00000000   Number         0  uart_rfid.o ABSOLUTE
    ..\\HARDWARE\\SDIO\\sdio_sdcard.c        0x00000000   Number         0  sdio_sdcard.o ABSOLUTE
    ..\\HARDWARE\\SRAM\\sram.c               0x00000000   Number         0  sram.o ABSOLUTE
    ..\\HARDWARE\\TFT\\cmd_process.c         0x00000000   Number         0  cmd_process.o ABSOLUTE
    ..\\HARDWARE\\TFT\\cmd_queue.c           0x00000000   Number         0  cmd_queue.o ABSOLUTE
    ..\\HARDWARE\\TFT\\hmi_driver.c          0x00000000   Number         0  hmi_driver.o ABSOLUTE
    ..\\HARDWARE\\TFT\\hmi_user_uart.c       0x00000000   Number         0  hmi_user_uart.o ABSOLUTE
    ..\\HARDWARE\\WEIGHT\\DSP_Lib\\math_helper.c 0x00000000   Number         0  math_helper.o ABSOLUTE
    ..\\HARDWARE\\WEIGHT\\Load_Sensor\\Load_Sensor.c 0x00000000   Number         0  load_sensor.o ABSOLUTE
    ..\\HARDWARE\\WEIGHT\\TIMER\\timer.c     0x00000000   Number         0  timer.o ABSOLUTE
    ..\\HARDWARE\\WEIGHT\\ads1263\\ADS126x.c 0x00000000   Number         0  ads126x.o ABSOLUTE
    ..\\HARDWARE\\WEIGHT\\my_spi\\my_spi.c   0x00000000   Number         0  my_spi.o ABSOLUTE
    ..\\SYSTEM\\delay\\delay.c               0x00000000   Number         0  delay.o ABSOLUTE
    ..\\SYSTEM\\sys\\sys.c                   0x00000000   Number         0  sys.o ABSOLUTE
    ..\\SYSTEM\\usart\\usart.c               0x00000000   Number         0  usart.o ABSOLUTE
    cJSON.c                                  0x00000000   Number         0  cjson.o ABSOLUTE
    cJSON.c                                  0x00000000   Number         0  cjson.o ABSOLUTE
    dc.s                                     0x00000000   Number         0  dc.o ABSOLUTE
    main.c                                   0x00000000   Number         0  main.o ABSOLUTE
    main.c                                   0x00000000   Number         0  main.o ABSOLUTE
    myString.c                               0x00000000   Number         0  mystring.o ABSOLUTE
    myString.c                               0x00000000   Number         0  mystring.o ABSOLUTE
    stm32f4xx_it.c                           0x00000000   Number         0  stm32f4xx_it.o ABSOLUTE
    stm32f4xx_it.c                           0x00000000   Number         0  stm32f4xx_it.o ABSOLUTE
    system_stm32f4xx.c                       0x00000000   Number         0  system_stm32f4xx.o ABSOLUTE
    system_stm32f4xx.c                       0x00000000   Number         0  system_stm32f4xx.o ABSOLUTE
    user_task.c                              0x00000000   Number         0  user_task.o ABSOLUTE
    user_task.c                              0x00000000   Number         0  user_task.o ABSOLUTE
    RESET                                    0x08000000   Section      392  startup_stm32f40_41xxx.o(RESET)
    !!!main                                  0x08000188   Section        8  __main.o(!!!main)
    !!!scatter                               0x08000190   Section       52  __scatter.o(!!!scatter)
    !!dczerorl2                              0x080001c4   Section       90  __dczerorl2.o(!!dczerorl2)
    !!handler_zi                             0x08000220   Section       28  __scatter_zi.o(!!handler_zi)
    .ARM.Collect$$_printf_percent$$00000000  0x0800023c   Section        0  _printf_percent.o(.ARM.Collect$$_printf_percent$$00000000)
    .ARM.Collect$$_printf_percent$$00000001  0x0800023c   Section        6  _printf_n.o(.ARM.Collect$$_printf_percent$$00000001)
    .ARM.Collect$$_printf_percent$$00000002  0x08000242   Section        6  _printf_p.o(.ARM.Collect$$_printf_percent$$00000002)
    .ARM.Collect$$_printf_percent$$00000003  0x08000248   Section        6  _printf_f.o(.ARM.Collect$$_printf_percent$$00000003)
    .ARM.Collect$$_printf_percent$$00000004  0x0800024e   Section        6  _printf_e.o(.ARM.Collect$$_printf_percent$$00000004)
    .ARM.Collect$$_printf_percent$$00000005  0x08000254   Section        6  _printf_g.o(.ARM.Collect$$_printf_percent$$00000005)
    .ARM.Collect$$_printf_percent$$00000006  0x0800025a   Section        6  _printf_a.o(.ARM.Collect$$_printf_percent$$00000006)
    .ARM.Collect$$_printf_percent$$00000007  0x08000260   Section       10  _printf_ll.o(.ARM.Collect$$_printf_percent$$00000007)
    .ARM.Collect$$_printf_percent$$00000008  0x0800026a   Section        6  _printf_i.o(.ARM.Collect$$_printf_percent$$00000008)
    .ARM.Collect$$_printf_percent$$00000009  0x08000270   Section        6  _printf_d.o(.ARM.Collect$$_printf_percent$$00000009)
    .ARM.Collect$$_printf_percent$$0000000A  0x08000276   Section        6  _printf_u.o(.ARM.Collect$$_printf_percent$$0000000A)
    .ARM.Collect$$_printf_percent$$0000000B  0x0800027c   Section        6  _printf_o.o(.ARM.Collect$$_printf_percent$$0000000B)
    .ARM.Collect$$_printf_percent$$0000000C  0x08000282   Section        6  _printf_x.o(.ARM.Collect$$_printf_percent$$0000000C)
    .ARM.Collect$$_printf_percent$$0000000D  0x08000288   Section        6  _printf_lli.o(.ARM.Collect$$_printf_percent$$0000000D)
    .ARM.Collect$$_printf_percent$$0000000E  0x0800028e   Section        6  _printf_lld.o(.ARM.Collect$$_printf_percent$$0000000E)
    .ARM.Collect$$_printf_percent$$0000000F  0x08000294   Section        6  _printf_llu.o(.ARM.Collect$$_printf_percent$$0000000F)
    .ARM.Collect$$_printf_percent$$00000010  0x0800029a   Section        6  _printf_llo.o(.ARM.Collect$$_printf_percent$$00000010)
    .ARM.Collect$$_printf_percent$$00000011  0x080002a0   Section        6  _printf_llx.o(.ARM.Collect$$_printf_percent$$00000011)
    .ARM.Collect$$_printf_percent$$00000012  0x080002a6   Section       10  _printf_l.o(.ARM.Collect$$_printf_percent$$00000012)
    .ARM.Collect$$_printf_percent$$00000013  0x080002b0   Section        6  _printf_c.o(.ARM.Collect$$_printf_percent$$00000013)
    .ARM.Collect$$_printf_percent$$00000014  0x080002b6   Section        6  _printf_s.o(.ARM.Collect$$_printf_percent$$00000014)
    .ARM.Collect$$_printf_percent$$00000015  0x080002bc   Section        6  _printf_lc.o(.ARM.Collect$$_printf_percent$$00000015)
    .ARM.Collect$$_printf_percent$$00000016  0x080002c2   Section        6  _printf_ls.o(.ARM.Collect$$_printf_percent$$00000016)
    .ARM.Collect$$_printf_percent$$00000017  0x080002c8   Section        4  _printf_percent_end.o(.ARM.Collect$$_printf_percent$$00000017)
    .ARM.Collect$$libinit$$00000000          0x080002cc   Section        2  libinit.o(.ARM.Collect$$libinit$$00000000)
    .ARM.Collect$$libinit$$00000001          0x080002ce   Section        4  libinit2.o(.ARM.Collect$$libinit$$00000001)
    .ARM.Collect$$libinit$$00000004          0x080002d2   Section        0  libinit2.o(.ARM.Collect$$libinit$$00000004)
    .ARM.Collect$$libinit$$00000005          0x080002d2   Section        8  libinit2.o(.ARM.Collect$$libinit$$00000005)
    .ARM.Collect$$libinit$$0000000A          0x080002da   Section        0  libinit2.o(.ARM.Collect$$libinit$$0000000A)
    .ARM.Collect$$libinit$$0000000C          0x080002da   Section        0  libinit2.o(.ARM.Collect$$libinit$$0000000C)
    .ARM.Collect$$libinit$$0000000D          0x080002da   Section        4  libinit2.o(.ARM.Collect$$libinit$$0000000D)
    .ARM.Collect$$libinit$$0000000E          0x080002de   Section        0  libinit2.o(.ARM.Collect$$libinit$$0000000E)
    .ARM.Collect$$libinit$$0000000F          0x080002de   Section        6  libinit2.o(.ARM.Collect$$libinit$$0000000F)
    .ARM.Collect$$libinit$$00000011          0x080002e4   Section        0  libinit2.o(.ARM.Collect$$libinit$$00000011)
    .ARM.Collect$$libinit$$00000012          0x080002e4   Section       12  libinit2.o(.ARM.Collect$$libinit$$00000012)
    .ARM.Collect$$libinit$$00000013          0x080002f0   Section        0  libinit2.o(.ARM.Collect$$libinit$$00000013)
    .ARM.Collect$$libinit$$00000015          0x080002f0   Section        0  libinit2.o(.ARM.Collect$$libinit$$00000015)
    .ARM.Collect$$libinit$$00000016          0x080002f0   Section       10  libinit2.o(.ARM.Collect$$libinit$$00000016)
    .ARM.Collect$$libinit$$00000017          0x080002fa   Section        0  libinit2.o(.ARM.Collect$$libinit$$00000017)
    .ARM.Collect$$libinit$$00000019          0x080002fa   Section        0  libinit2.o(.ARM.Collect$$libinit$$00000019)
    .ARM.Collect$$libinit$$0000001B          0x080002fa   Section        0  libinit2.o(.ARM.Collect$$libinit$$0000001B)
    .ARM.Collect$$libinit$$0000001D          0x080002fa   Section        0  libinit2.o(.ARM.Collect$$libinit$$0000001D)
    .ARM.Collect$$libinit$$0000001F          0x080002fa   Section        0  libinit2.o(.ARM.Collect$$libinit$$0000001F)
    .ARM.Collect$$libinit$$00000021          0x080002fa   Section        0  libinit2.o(.ARM.Collect$$libinit$$00000021)
    .ARM.Collect$$libinit$$00000023          0x080002fa   Section        0  libinit2.o(.ARM.Collect$$libinit$$00000023)
    .ARM.Collect$$libinit$$00000025          0x080002fa   Section        0  libinit2.o(.ARM.Collect$$libinit$$00000025)
    .ARM.Collect$$libinit$$0000002C          0x080002fa   Section        0  libinit2.o(.ARM.Collect$$libinit$$0000002C)
    .ARM.Collect$$libinit$$0000002E          0x080002fa   Section        0  libinit2.o(.ARM.Collect$$libinit$$0000002E)
    .ARM.Collect$$libinit$$00000030          0x080002fa   Section        0  libinit2.o(.ARM.Collect$$libinit$$00000030)
    .ARM.Collect$$libinit$$00000032          0x080002fa   Section        0  libinit2.o(.ARM.Collect$$libinit$$00000032)
    .ARM.Collect$$libinit$$00000033          0x080002fa   Section        2  libinit2.o(.ARM.Collect$$libinit$$00000033)
    .ARM.Collect$$libshutdown$$00000000      0x080002fc   Section        2  libshutdown.o(.ARM.Collect$$libshutdown$$00000000)
    .ARM.Collect$$libshutdown$$00000003      0x080002fe   Section        0  libshutdown2.o(.ARM.Collect$$libshutdown$$00000003)
    .ARM.Collect$$libshutdown$$00000006      0x080002fe   Section        0  libshutdown2.o(.ARM.Collect$$libshutdown$$00000006)
    .ARM.Collect$$libshutdown$$00000009      0x080002fe   Section        0  libshutdown2.o(.ARM.Collect$$libshutdown$$00000009)
    .ARM.Collect$$libshutdown$$0000000B      0x080002fe   Section        0  libshutdown2.o(.ARM.Collect$$libshutdown$$0000000B)
    .ARM.Collect$$libshutdown$$0000000E      0x080002fe   Section        0  libshutdown2.o(.ARM.Collect$$libshutdown$$0000000E)
    .ARM.Collect$$libshutdown$$0000000F      0x080002fe   Section        2  libshutdown2.o(.ARM.Collect$$libshutdown$$0000000F)
    .ARM.Collect$$rtentry$$00000000          0x08000300   Section        0  __rtentry.o(.ARM.Collect$$rtentry$$00000000)
    .ARM.Collect$$rtentry$$00000002          0x08000300   Section        0  __rtentry2.o(.ARM.Collect$$rtentry$$00000002)
    .ARM.Collect$$rtentry$$00000004          0x08000300   Section        6  __rtentry4.o(.ARM.Collect$$rtentry$$00000004)
    .ARM.Collect$$rtentry$$00000009          0x08000306   Section        0  __rtentry2.o(.ARM.Collect$$rtentry$$00000009)
    .ARM.Collect$$rtentry$$0000000A          0x08000306   Section        4  __rtentry2.o(.ARM.Collect$$rtentry$$0000000A)
    .ARM.Collect$$rtentry$$0000000C          0x0800030a   Section        0  __rtentry2.o(.ARM.Collect$$rtentry$$0000000C)
    .ARM.Collect$$rtentry$$0000000D          0x0800030a   Section        8  __rtentry2.o(.ARM.Collect$$rtentry$$0000000D)
    .ARM.Collect$$rtexit$$00000000           0x08000312   Section        2  rtexit.o(.ARM.Collect$$rtexit$$00000000)
    .ARM.Collect$$rtexit$$00000002           0x08000314   Section        0  rtexit2.o(.ARM.Collect$$rtexit$$00000002)
    .ARM.Collect$$rtexit$$00000003           0x08000314   Section        4  rtexit2.o(.ARM.Collect$$rtexit$$00000003)
    .ARM.Collect$$rtexit$$00000004           0x08000318   Section        6  rtexit2.o(.ARM.Collect$$rtexit$$00000004)
    .emb_text                                0x08000320   Section      190  port.o(.emb_text)
    $v0                                      0x08000320   Number         0  port.o(.emb_text)
    .emb_text                                0x080003e0   Section       16  sys.o(.emb_text)
    $v0                                      0x080003e0   Number         0  sys.o(.emb_text)
    .emb_text                                0x080003f0   Section       52  rand.o(.emb_text)
    .emb_text                                0x08000424   Section        0  maybetermalloc1.o(.emb_text)
    .text                                    0x08000424   Section        0  main.o(.text)
    .text                                    0x080005c8   Section        0  stm32f4xx_it.o(.text)
    .text                                    0x080005dc   Section        0  system_stm32f4xx.o(.text)
    SetSysClock                              0x080005dd   Thumb Code   220  system_stm32f4xx.o(.text)
    .text                                    0x080007ec   Section        0  user_task.o(.text)
    vWork_task_add_fodder                    0x080008e1   Thumb Code   290  user_task.o(.text)
    vWork_task_wait_pig_enter                0x08000a03   Thumb Code   294  user_task.o(.text)
    vWork_task_clear_weight                  0x08000b29   Thumb Code   112  user_task.o(.text)
    prv_process_can_msg                      0x0800244b   Thumb Code   484  user_task.o(.text)
    .text                                    0x08002e90   Section        0  cjson.o(.text)
    cJSON_strcasecmp                         0x08002e97   Thumb Code    76  cjson.o(.text)
    cJSON_strdup                             0x08002ee3   Thumb Code    40  cjson.o(.text)
    cJSON_New_Item                           0x08002f3b   Thumb Code    26  cjson.o(.text)
    parse_number                             0x08002fa7   Thumb Code   424  cjson.o(.text)
    pow2gt                                   0x0800314f   Thumb Code    28  cjson.o(.text)
    ensure                                   0x0800316b   Thumb Code   104  cjson.o(.text)
    update                                   0x080031d3   Thumb Code    32  cjson.o(.text)
    print_number                             0x080031f3   Thumb Code   554  cjson.o(.text)
    parse_hex4                               0x0800341d   Thumb Code   276  cjson.o(.text)
    parse_string                             0x08003531   Thumb Code   512  cjson.o(.text)
    print_string_ptr                         0x08003731   Thumb Code   442  cjson.o(.text)
    print_string                             0x080038eb   Thumb Code    16  cjson.o(.text)
    skip                                     0x080038fb   Thumb Code    18  cjson.o(.text)
    parse_object                             0x0800390d   Thumb Code   270  cjson.o(.text)
    parse_array                              0x08003a1b   Thumb Code   166  cjson.o(.text)
    parse_value                              0x08003ac1   Thumb Code   158  cjson.o(.text)
    print_object                             0x08003c05   Thumb Code  1052  cjson.o(.text)
    print_array                              0x08004021   Thumb Code   578  cjson.o(.text)
    print_value                              0x08004263   Thumb Code   290  cjson.o(.text)
    suffix_object                            0x0800441f   Thumb Code     6  cjson.o(.text)
    create_reference                         0x08004425   Thumb Code    48  cjson.o(.text)
    .text                                    0x080049ec   Section        0  mystring.o(.text)
    .text                                    0x08004a40   Section        0  hardcontrol.o(.text)
    motor_on                                 0x08004c19   Thumb Code    48  hardcontrol.o(.text)
    .text                                    0x08004d78   Section        0  led.o(.text)
    .text                                    0x08004df0   Section        0  cmd_queue.o(.text)
    queue_pop                                0x08004e2f   Thumb Code    48  cmd_queue.o(.text)
    queue_size                               0x08004e5f   Thumb Code    30  cmd_queue.o(.text)
    .text                                    0x08004f04   Section        0  hmi_driver.o(.text)
    .text                                    0x08007650   Section        0  hmi_user_uart.o(.text)
    .text                                    0x0800772c   Section        0  cmd_process.o(.text)
    str2int                                  0x08007847   Thumb Code    56  cmd_process.o(.text)
    .text                                    0x08008998   Section        0  iwdg.o(.text)
    .text                                    0x080089c4   Section        0  uart_rfid.o(.text)
    rfid_queue_pop                           0x080089c5   Thumb Code    46  uart_rfid.o(.text)
    rfid_queue_size                          0x080089f3   Thumb Code    28  uart_rfid.o(.text)
    rfid_open                                0x08008a0f   Thumb Code    48  uart_rfid.o(.text)
    rfid_close                               0x08008a3f   Thumb Code    38  uart_rfid.o(.text)
    rfid_queue_reset                         0x08008a65   Thumb Code    18  uart_rfid.o(.text)
    rfid_queue_find_data                     0x08008aa3   Thumb Code   508  uart_rfid.o(.text)
    rfid_sent_byte                           0x08008cf5   Thumb Code    22  uart_rfid.o(.text)
    .text                                    0x08008dfc   Section        0  ads126x.o(.text)
    ADS126xWriteRegister                     0x08008e85   Thumb Code    68  ads126x.o(.text)
    ADS126xReadRegister                      0x08008ec9   Thumb Code    70  ads126x.o(.text)
    WAIT_DRED                                0x08008feb   Thumb Code   152  ads126x.o(.text)
    ADS126xReadData                          0x08009083   Thumb Code    90  ads126x.o(.text)
    ADS126xXferByte                          0x080096b7   Thumb Code    12  ads126x.o(.text)
    .text                                    0x080096cc   Section        0  load_sensor.o(.text)
    prvLoad_avg_data                         0x0800983f   Thumb Code   342  load_sensor.o(.text)
    find_min_variance_result                 0x0801066d   Thumb Code   148  load_sensor.o(.text)
    add_data_to_buf                          0x08010701   Thumb Code    36  load_sensor.o(.text)
    cal_variance                             0x08010725   Thumb Code    74  load_sensor.o(.text)
    Low_pass_filter                          0x0801076f   Thumb Code   100  load_sensor.o(.text)
    .text                                    0x08011124   Section        0  my_spi.o(.text)
    .text                                    0x08011200   Section        0  can.o(.text)
    .text                                    0x080113c0   Section        0  24cxx.o(.text)
    AT24CXX_ReadOneByte                      0x080113c9   Thumb Code    88  24cxx.o(.text)
    AT24CXX_WriteOneByte                     0x08011421   Thumb Code    80  24cxx.o(.text)
    AT24CXX_WriteLenByte                     0x08011471   Thumb Code    42  24cxx.o(.text)
    AT24CXX_ReadLenByte                      0x0801149b   Thumb Code    44  24cxx.o(.text)
    .text                                    0x08011618   Section        0  myiic.o(.text)
    .text                                    0x08011880   Section        0  event_groups.o(.text)
    prvTestWaitCondition                     0x08011a3d   Thumb Code    30  event_groups.o(.text)
    .text                                    0x08011cde   Section        0  list.o(.text)
    .text                                    0x08011d74   Section        0  queue.o(.text)
    prvInitialiseNewQueue                    0x08011dfd   Thumb Code    46  queue.o(.text)
    prvCopyDataToQueue                       0x08011e7b   Thumb Code   126  queue.o(.text)
    prvNotifyQueueSetContainer               0x08011ef9   Thumb Code   124  queue.o(.text)
    prvUnlockQueue                           0x08011f75   Thumb Code   146  queue.o(.text)
    prvIsQueueFull                           0x08012007   Thumb Code    30  queue.o(.text)
    prvInitialiseMutex                       0x080121fb   Thumb Code    30  queue.o(.text)
    prvGetDisinheritPriorityAfterTimeout     0x0801227d   Thumb Code    20  queue.o(.text)
    prvIsQueueEmpty                          0x08012291   Thumb Code    26  queue.o(.text)
    prvCopyDataFromQueue                     0x080126bb   Thumb Code    42  queue.o(.text)
    .text                                    0x08012d44   Section        0  tasks.o(.text)
    prvInitialiseTaskLists                   0x08012d45   Thumb Code    70  tasks.o(.text)
    prvAddNewTaskToReadyList                 0x08012d8b   Thumb Code   156  tasks.o(.text)
    prvInitialiseNewTask                     0x08012e27   Thumb Code   184  tasks.o(.text)
    prvResetNextTaskUnblockTime              0x08012f3f   Thumb Code    42  tasks.o(.text)
    prvDeleteTCB                             0x08012f69   Thumb Code    18  tasks.o(.text)
    prvAddCurrentTaskToDelayedList           0x08013295   Thumb Code   124  tasks.o(.text)
    prvTaskIsTaskSuspended                   0x0801376d   Thumb Code    76  tasks.o(.text)
    prvCheckTasksWaitingTermination          0x080138cb   Thumb Code    60  tasks.o(.text)
    prvIdleTask                              0x08013907   Thumb Code    32  tasks.o(.text)
    prvTaskCheckFreeStackSpace               0x08013a43   Thumb Code    22  tasks.o(.text)
    prvListTasksWithinSingleList             0x08013ad7   Thumb Code   106  tasks.o(.text)
    prvWriteNameToBuffer                     0x0801411b   Thumb Code    42  tasks.o(.text)
    .text                                    0x080146cc   Section        0  timers.o(.text)
    prvInsertTimerInActiveList               0x080146cd   Thumb Code    80  timers.o(.text)
    prvSwitchTimerLists                      0x08014793   Thumb Code   140  timers.o(.text)
    prvSampleTimeNow                         0x0801481f   Thumb Code    40  timers.o(.text)
    prvProcessReceivedCommands               0x08014847   Thumb Code   252  timers.o(.text)
    prvProcessExpiredTimer                   0x08014943   Thumb Code    84  timers.o(.text)
    prvProcessTimerOrBlockTask               0x08014997   Thumb Code   102  timers.o(.text)
    prvGetNextExpireTime                     0x080149fd   Thumb Code    36  timers.o(.text)
    prvTimerTask                             0x08014a21   Thumb Code    26  timers.o(.text)
    prvCheckForValidListAndQueue             0x08014a3b   Thumb Code    72  timers.o(.text)
    prvInitialiseNewTimer                    0x08014abb   Thumb Code   166  timers.o(.text)
    .text                                    0x08014d18   Section        0  port.o(.text)
    prvTaskExitError                         0x08014d19   Thumb Code    48  port.o(.text)
    .text                                    0x08015054   Section        0  heap_5.o(.text)
    prvInsertBlockIntoFreeList               0x08015055   Thumb Code    96  heap_5.o(.text)
    .text                                    0x0801534c   Section        0  diskio.o(.text)
    .text                                    0x08015570   Section        0  ff.o(.text)
    ld_word                                  0x08015571   Thumb Code    12  ff.o(.text)
    ld_dword                                 0x0801557d   Thumb Code    24  ff.o(.text)
    st_word                                  0x08015595   Thumb Code    12  ff.o(.text)
    st_dword                                 0x080155a1   Thumb Code    24  ff.o(.text)
    mem_cpy                                  0x080155b9   Thumb Code    26  ff.o(.text)
    mem_set                                  0x080155d3   Thumb Code    18  ff.o(.text)
    mem_cmp                                  0x080155e5   Thumb Code    36  ff.o(.text)
    chk_chr                                  0x08015609   Thumb Code    20  ff.o(.text)
    dbc_1st                                  0x0801561d   Thumb Code    46  ff.o(.text)
    dbc_2nd                                  0x0801564b   Thumb Code    66  ff.o(.text)
    tchar2uni                                0x0801568d   Thumb Code    76  ff.o(.text)
    put_utf                                  0x080156d9   Thumb Code    66  ff.o(.text)
    lock_fs                                  0x0801571b   Thumb Code    12  ff.o(.text)
    unlock_fs                                0x08015727   Thumb Code    28  ff.o(.text)
    sync_window                              0x08015743   Thumb Code    74  ff.o(.text)
    move_window                              0x0801578d   Thumb Code    52  ff.o(.text)
    sync_fs                                  0x080157c1   Thumb Code   134  ff.o(.text)
    clst2sect                                0x08015847   Thumb Code    26  ff.o(.text)
    get_fat                                  0x08015861   Thumb Code   224  ff.o(.text)
    put_fat                                  0x08015941   Thumb Code   324  ff.o(.text)
    remove_chain                             0x08015a85   Thumb Code   154  ff.o(.text)
    create_chain                             0x08015b1f   Thumb Code   288  ff.o(.text)
    clmt_clust                               0x08015c3f   Thumb Code    50  ff.o(.text)
    dir_clear                                0x08015c71   Thumb Code   194  ff.o(.text)
    dir_sdi                                  0x08015d33   Thumb Code   154  ff.o(.text)
    dir_next                                 0x08015dcd   Thumb Code   198  ff.o(.text)
    dir_alloc                                0x08015e93   Thumb Code    96  ff.o(.text)
    ld_clust                                 0x08015ef3   Thumb Code    38  ff.o(.text)
    st_clust                                 0x08015f19   Thumb Code    36  ff.o(.text)
    cmp_lfn                                  0x08015f3d   Thumb Code   148  ff.o(.text)
    pick_lfn                                 0x08015fd1   Thumb Code   130  ff.o(.text)
    put_lfn                                  0x08016053   Thumb Code   124  ff.o(.text)
    gen_numname                              0x080160cf   Thumb Code   198  ff.o(.text)
    sum_sfn                                  0x08016195   Thumb Code    32  ff.o(.text)
    dir_read                                 0x080161b5   Thumb Code   210  ff.o(.text)
    dir_find                                 0x08016287   Thumb Code   260  ff.o(.text)
    dir_register                             0x0801638b   Thumb Code   322  ff.o(.text)
    dir_remove                               0x080164cd   Thumb Code    96  ff.o(.text)
    get_fileinfo                             0x0801652d   Thumb Code   374  ff.o(.text)
    get_achar                                0x080166a3   Thumb Code    62  ff.o(.text)
    pattern_matching                         0x080166e1   Thumb Code   196  ff.o(.text)
    create_name                              0x080167a5   Thumb Code   672  ff.o(.text)
    follow_path                              0x08016a45   Thumb Code   202  ff.o(.text)
    get_ldnumber                             0x08016b0f   Thumb Code    76  ff.o(.text)
    check_fs                                 0x08016b5b   Thumb Code   112  ff.o(.text)
    find_volume                              0x08016bcb   Thumb Code   808  ff.o(.text)
    validate                                 0x08016ef3   Thumb Code    82  ff.o(.text)
    putc_bfd                                 0x080190fb   Thumb Code    78  ff.o(.text)
    putc_flush                               0x08019149   Thumb Code    44  ff.o(.text)
    putc_init                                0x08019175   Thumb Code    20  ff.o(.text)
    .text                                    0x08019476   Section        0  ffsystem.o(.text)
    .text                                    0x080194c8   Section        0  ffunicode.o(.text)
    .text                                    0x08019650   Section        0  exfuns.o(.text)
    .text                                    0x0801972c   Section        0  sdio_sdcard.o(.text)
    .text                                    0x0801b48c   Section        0  misc.o(.text)
    .text                                    0x0801b56c   Section        0  stm32f4xx_gpio.o(.text)
    .text                                    0x0801b800   Section        0  stm32f4xx_rcc.o(.text)
    .text                                    0x0801be5c   Section        0  stm32f4xx_syscfg.o(.text)
    .text                                    0x0801bef0   Section        0  stm32f4xx_usart.o(.text)
    .text                                    0x0801c344   Section        0  stm32f4xx_exti.o(.text)
    .text                                    0x0801c454   Section        0  stm32f4xx_sdio.o(.text)
    .text                                    0x0801c630   Section        0  stm32f4xx_dma.o(.text)
    .text                                    0x0801c9d8   Section        0  stm32f4xx_can.o(.text)
    CheckITStatus                            0x0801d1db   Thumb Code    18  stm32f4xx_can.o(.text)
    .text                                    0x0801d3c8   Section        0  stm32f4xx_iwdg.o(.text)
    .text                                    0x0801d408   Section        0  delay.o(.text)
    .text                                    0x0801d508   Section        0  usart.o(.text)
    .text                                    0x0801d7e0   Section       64  startup_stm32f40_41xxx.o(.text)
    $v0                                      0x0801d7e0   Number         0  startup_stm32f40_41xxx.o(.text)
    .text                                    0x0801d820   Section        2  use_no_semi_2.o(.text)
    .text                                    0x0801d822   Section        0  h1_alloc.o(.text)
    .text                                    0x0801d880   Section        0  h1_free.o(.text)
    .text                                    0x0801d8ce   Section       72  llsdiv.o(.text)
    .text                                    0x0801d916   Section        0  tolower.o(.text)
    .text                                    0x0801d930   Section        0  vsnprintf.o(.text)
    .text                                    0x0801d964   Section        0  __2printf.o(.text)
    .text                                    0x0801d97c   Section        0  __2sprintf.o(.text)
    .text                                    0x0801d9a8   Section        0  _printf_pad.o(.text)
    .text                                    0x0801d9f6   Section        0  _printf_str.o(.text)
    .text                                    0x0801da48   Section        0  _printf_dec.o(.text)
    .text                                    0x0801dac0   Section        0  _printf_hex_int_ll_ptr.o(.text)
    _printf_hex_common                       0x0801dac1   Thumb Code     0  _printf_hex_int_ll_ptr.o(.text)
    .text                                    0x0801db54   Section        0  __printf_flags_ss_wp.o(.text)
    .text                                    0x0801dcdc   Section        0  __0sscanf.o(.text)
    .text                                    0x0801dd18   Section        0  _scanf_int.o(.text)
    .text                                    0x0801de64   Section        0  rand.o(.text)
    .text                                    0x0801dea0   Section        0  strchr.o(.text)
    .text                                    0x0801deb4   Section        0  strcpy.o(.text)
    .text                                    0x0801defc   Section        0  strlen.o(.text)
    .text                                    0x0801df3a   Section        0  strncmp.o(.text)
    .text                                    0x0801dfd0   Section      138  rt_memcpy_v6.o(.text)
    .text                                    0x0801e05a   Section      100  rt_memcpy_w.o(.text)
    .text                                    0x0801e0be   Section       16  aeabi_memset.o(.text)
    .text                                    0x0801e0ce   Section       78  rt_memclr_w.o(.text)
    .text                                    0x0801e11c   Section       86  strncpy.o(.text)
    .text                                    0x0801e172   Section        0  heapauxi.o(.text)
    .text                                    0x0801e178   Section        2  use_no_semi.o(.text)
    .text                                    0x0801e17c   Section       16  rt_ctype_table.o(.text)
    .text                                    0x0801e18c   Section        8  rt_heap_descriptor_intlibspace.o(.text)
    .text                                    0x0801e194   Section        0  hguard.o(.text)
    .text                                    0x0801e198   Section        0  init_alloc.o(.text)
    .text                                    0x0801e222   Section        0  h1_init.o(.text)
    .text                                    0x0801e230   Section      238  lludivv7m.o(.text)
    .text                                    0x0801e31e   Section        0  _rserrno.o(.text)
    .text                                    0x0801e334   Section        0  _printf_truncate.o(.text)
    .text                                    0x0801e358   Section        0  _printf_intcommon.o(.text)
    .text                                    0x0801e40a   Section        0  _printf_charcount.o(.text)
    .text                                    0x0801e432   Section        0  _printf_fp_dec.o(.text)
    _fp_digits                               0x0801e435   Thumb Code   428  _printf_fp_dec.o(.text)
    .text                                    0x0801e84c   Section        0  _printf_char_common.o(.text)
    _printf_input_char                       0x0801e84d   Thumb Code    10  _printf_char_common.o(.text)
    .text                                    0x0801e87c   Section        0  _sputc.o(.text)
    .text                                    0x0801e886   Section        0  _snputc.o(.text)
    .text                                    0x0801e896   Section        0  _printf_char.o(.text)
    .text                                    0x0801e8c4   Section        0  _printf_char_file.o(.text)
    .text                                    0x0801e8e8   Section        0  _printf_wctomb.o(.text)
    .text                                    0x0801e9a4   Section        0  _printf_longlong_dec.o(.text)
    .text                                    0x0801ea20   Section        0  _printf_oct_int_ll.o(.text)
    _printf_longlong_oct_internal            0x0801ea21   Thumb Code     0  _printf_oct_int_ll.o(.text)
    .text                                    0x0801ea90   Section        0  _chval.o(.text)
    .text                                    0x0801eaac   Section        0  scanf_fp.o(.text)
    _fp_value                                0x0801eaad   Thumb Code   508  scanf_fp.o(.text)
    .text                                    0x0801ef50   Section        0  scanf_char.o(.text)
    _scanf_char_input                        0x0801ef51   Thumb Code    12  scanf_char.o(.text)
    .text                                    0x0801ef7c   Section        0  _sgetc.o(.text)
    .text                                    0x0801efbc   Section       68  rt_memclr.o(.text)
    .text                                    0x0801f000   Section        8  libspace.o(.text)
    .text                                    0x0801f008   Section        8  rt_locale_intlibspace.o(.text)
    .text                                    0x0801f010   Section        8  rt_errno_addr_intlibspace.o(.text)
    .text                                    0x0801f018   Section        0  h1_extend.o(.text)
    .text                                    0x0801f04c   Section      138  lludiv10.o(.text)
    .text                                    0x0801f0d6   Section        0  isspace.o(.text)
    .text                                    0x0801f0e8   Section        0  _printf_fp_hex.o(.text)
    .text                                    0x0801f3e4   Section        0  _printf_fp_infnan.o(.text)
    .text                                    0x0801f464   Section        0  _printf_wchar.o(.text)
    .text                                    0x0801f490   Section        0  _scanf.o(.text)
    .text                                    0x0801f804   Section        0  bigflt0.o(.text)
    .text                                    0x0801f8e0   Section        0  ferror.o(.text)
    .text                                    0x0801f8e8   Section        0  _wcrtomb.o(.text)
    .text                                    0x0801f928   Section        0  defsig_rtmem_outer.o(.text)
    .text                                    0x0801f936   Section       74  sys_stackheap_outer.o(.text)
    .text                                    0x0801f980   Section        0  scanf_hexfp.o(.text)
    .text                                    0x0801fc98   Section        0  scanf_infnan.o(.text)
    .text                                    0x0801fdcc   Section        0  exit.o(.text)
    .text                                    0x0801fdd8   Section        0  defsig_exit.o(.text)
    .text                                    0x0801fde4   Section        0  defsig_rtmem_inner.o(.text)
    .text                                    0x0801fe34   Section      128  strcmpv7m.o(.text)
    .text                                    0x0801feb4   Section       38  llshl.o(.text)
    .text                                    0x0801feda   Section        0  defsig_general.o(.text)
    CL$$btod_d2e                             0x0801ff0c   Section       62  btod.o(CL$$btod_d2e)
    CL$$btod_d2e_denorm_low                  0x0801ff4a   Section       70  btod.o(CL$$btod_d2e_denorm_low)
    CL$$btod_d2e_norm_op1                    0x0801ff90   Section       96  btod.o(CL$$btod_d2e_norm_op1)
    CL$$btod_div_common                      0x0801fff0   Section      824  btod.o(CL$$btod_div_common)
    CL$$btod_e2d                             0x08020328   Section       84  btod.o(CL$$btod_e2d)
    CL$$btod_e2e                             0x0802037c   Section      198  btod.o(CL$$btod_e2e)
    CL$$btod_ediv                            0x08020442   Section       40  btod.o(CL$$btod_ediv)
    CL$$btod_edivd                           0x0802046a   Section       40  btod.o(CL$$btod_edivd)
    CL$$btod_emul                            0x08020492   Section       40  btod.o(CL$$btod_emul)
    CL$$btod_emuld                           0x080204ba   Section       40  btod.o(CL$$btod_emuld)
    CL$$btod_mult_common                     0x080204e2   Section      580  btod.o(CL$$btod_mult_common)
    i.__ARM_fpclassify                       0x08020726   Section        0  fpclassify.o(i.__ARM_fpclassify)
    i.__hardfp_fabs                          0x08020756   Section        0  fabs.o(i.__hardfp_fabs)
    i.__hardfp_floor                         0x08020770   Section        0  floor.o(i.__hardfp_floor)
    i.__hardfp_ldexp                         0x08020888   Section        0  ldexp.o(i.__hardfp_ldexp)
    i.__hardfp_pow                           0x08020958   Section        0  pow.o(i.__hardfp_pow)
    i.__hardfp_round                         0x08021590   Section        0  round.o(i.__hardfp_round)
    i.__kernel_poly                          0x08021670   Section        0  poly.o(i.__kernel_poly)
    i.__mathlib_dbl_divzero                  0x08021768   Section        0  dunder.o(i.__mathlib_dbl_divzero)
    i.__mathlib_dbl_infnan2                  0x08021798   Section        0  dunder.o(i.__mathlib_dbl_infnan2)
    i.__mathlib_dbl_invalid                  0x080217b0   Section        0  dunder.o(i.__mathlib_dbl_invalid)
    i.__mathlib_dbl_overflow                 0x080217d0   Section        0  dunder.o(i.__mathlib_dbl_overflow)
    i.__mathlib_dbl_underflow                0x080217f0   Section        0  dunder.o(i.__mathlib_dbl_underflow)
    i.__mathlib_narrow                       0x08021810   Section        0  narrow.o(i.__mathlib_narrow)
    i.__support_ldexp                        0x080218c8   Section        0  ldexp.o(i.__support_ldexp)
    i._is_digit                              0x080218dc   Section        0  __printf_wp.o(i._is_digit)
    i.fabs                                   0x080218ea   Section        0  fabs.o(i.fabs)
    i.frexp                                  0x08021908   Section        0  frexp.o(i.frexp)
    i.sqrt                                   0x08021994   Section        0  sqrt.o(i.sqrt)
    locale$$code                             0x08021a04   Section       44  lc_ctype_c.o(locale$$code)
    locale$$code                             0x08021a30   Section       44  lc_numeric_c.o(locale$$code)
    x$fpl$basic                              0x08021a5c   Section       24  basic.o(x$fpl$basic)
    $v0                                      0x08021a5c   Number         0  basic.o(x$fpl$basic)
    x$fpl$d2f                                0x08021a74   Section       98  d2f.o(x$fpl$d2f)
    $v0                                      0x08021a74   Number         0  d2f.o(x$fpl$d2f)
    x$fpl$dadd                               0x08021ad8   Section      336  daddsub_clz.o(x$fpl$dadd)
    $v0                                      0x08021ad8   Number         0  daddsub_clz.o(x$fpl$dadd)
    _dadd1                                   0x08021ae9   Thumb Code     0  daddsub_clz.o(x$fpl$dadd)
    x$fpl$dcheck1                            0x08021c28   Section       16  dcheck1.o(x$fpl$dcheck1)
    $v0                                      0x08021c28   Number         0  dcheck1.o(x$fpl$dcheck1)
    x$fpl$dcmpinf                            0x08021c38   Section       24  dcmpi.o(x$fpl$dcmpinf)
    $v0                                      0x08021c38   Number         0  dcmpi.o(x$fpl$dcmpinf)
    x$fpl$ddiv                               0x08021c50   Section      688  ddiv.o(x$fpl$ddiv)
    $v0                                      0x08021c50   Number         0  ddiv.o(x$fpl$ddiv)
    ddiv_entry                               0x08021c57   Thumb Code     0  ddiv.o(x$fpl$ddiv)
    x$fpl$deqf                               0x08021f00   Section      120  deqf.o(x$fpl$deqf)
    $v0                                      0x08021f00   Number         0  deqf.o(x$fpl$deqf)
    x$fpl$dfix                               0x08021f78   Section       94  dfix.o(x$fpl$dfix)
    $v0                                      0x08021f78   Number         0  dfix.o(x$fpl$dfix)
    x$fpl$dflt                               0x08021fd6   Section       46  dflt_clz.o(x$fpl$dflt)
    $v0                                      0x08021fd6   Number         0  dflt_clz.o(x$fpl$dflt)
    x$fpl$dfltu                              0x08022004   Section       38  dflt_clz.o(x$fpl$dfltu)
    $v0                                      0x08022004   Number         0  dflt_clz.o(x$fpl$dfltu)
    x$fpl$dleqf                              0x0802202c   Section      120  dleqf.o(x$fpl$dleqf)
    $v0                                      0x0802202c   Number         0  dleqf.o(x$fpl$dleqf)
    x$fpl$dmul                               0x080220a4   Section      340  dmul.o(x$fpl$dmul)
    $v0                                      0x080220a4   Number         0  dmul.o(x$fpl$dmul)
    x$fpl$dnaninf                            0x080221f8   Section      156  dnaninf.o(x$fpl$dnaninf)
    $v0                                      0x080221f8   Number         0  dnaninf.o(x$fpl$dnaninf)
    x$fpl$dretinf                            0x08022294   Section       12  dretinf.o(x$fpl$dretinf)
    $v0                                      0x08022294   Number         0  dretinf.o(x$fpl$dretinf)
    x$fpl$drleqf                             0x080222a0   Section      108  drleqf.o(x$fpl$drleqf)
    $v0                                      0x080222a0   Number         0  drleqf.o(x$fpl$drleqf)
    x$fpl$drnd                               0x0802230c   Section      180  drnd.o(x$fpl$drnd)
    $v0                                      0x0802230c   Number         0  drnd.o(x$fpl$drnd)
    x$fpl$drsb                               0x080223c0   Section       22  daddsub_clz.o(x$fpl$drsb)
    $v0                                      0x080223c0   Number         0  daddsub_clz.o(x$fpl$drsb)
    x$fpl$dsqrt                              0x080223d8   Section      408  dsqrt_umaal.o(x$fpl$dsqrt)
    $v0                                      0x080223d8   Number         0  dsqrt_umaal.o(x$fpl$dsqrt)
    x$fpl$dsub                               0x08022570   Section      468  daddsub_clz.o(x$fpl$dsub)
    $v0                                      0x08022570   Number         0  daddsub_clz.o(x$fpl$dsub)
    _dsub1                                   0x08022581   Thumb Code     0  daddsub_clz.o(x$fpl$dsub)
    x$fpl$f2d                                0x08022744   Section       86  f2d.o(x$fpl$f2d)
    $v0                                      0x08022744   Number         0  f2d.o(x$fpl$f2d)
    x$fpl$fnaninf                            0x0802279a   Section      140  fnaninf.o(x$fpl$fnaninf)
    $v0                                      0x0802279a   Number         0  fnaninf.o(x$fpl$fnaninf)
    x$fpl$fpinit                             0x08022826   Section       10  fpinit.o(x$fpl$fpinit)
    $v0                                      0x08022826   Number         0  fpinit.o(x$fpl$fpinit)
    x$fpl$fretinf                            0x08022830   Section       10  fretinf.o(x$fpl$fretinf)
    $v0                                      0x08022830   Number         0  fretinf.o(x$fpl$fretinf)
    x$fpl$printf1                            0x0802283a   Section        4  printf1.o(x$fpl$printf1)
    $v0                                      0x0802283a   Number         0  printf1.o(x$fpl$printf1)
    x$fpl$printf2                            0x0802283e   Section        4  printf2.o(x$fpl$printf2)
    $v0                                      0x0802283e   Number         0  printf2.o(x$fpl$printf2)
    x$fpl$retnan                             0x08022842   Section      100  retnan.o(x$fpl$retnan)
    $v0                                      0x08022842   Number         0  retnan.o(x$fpl$retnan)
    x$fpl$scalbn                             0x080228a6   Section       92  scalbn.o(x$fpl$scalbn)
    $v0                                      0x080228a6   Number         0  scalbn.o(x$fpl$scalbn)
    x$fpl$scanf1                             0x08022902   Section        4  scanf1.o(x$fpl$scanf1)
    $v0                                      0x08022902   Number         0  scanf1.o(x$fpl$scanf1)
    x$fpl$scanf2                             0x08022906   Section        8  scanf2.o(x$fpl$scanf2)
    $v0                                      0x08022906   Number         0  scanf2.o(x$fpl$scanf2)
    x$fpl$trapveneer                         0x0802290e   Section       48  trapv.o(x$fpl$trapveneer)
    $v0                                      0x0802290e   Number         0  trapv.o(x$fpl$trapveneer)
    x$fpl$usenofp                            0x0802293e   Section        0  usenofp.o(x$fpl$usenofp)
    .constdata                               0x08022940   Section       16  main.o(.constdata)
    .constdata                               0x08022950   Section        7  cjson.o(.constdata)
    firstByteMark                            0x08022950   Data           7  cjson.o(.constdata)
    .constdata                               0x08022958   Section       68  ff.o(.constdata)
    LfnOfs                                   0x08022958   Data          13  ff.o(.constdata)
    DbcTbl                                   0x08022965   Data          10  ff.o(.constdata)
    badchr                                   0x0802296f   Data          16  ff.o(.constdata)
    cst                                      0x08022980   Data          14  ff.o(.constdata)
    cst32                                    0x0802298e   Data          14  ff.o(.constdata)
    .constdata                               0x0802299c   Section    175030  ffunicode.o(.constdata)
    uni2oem936                               0x0802299c   Data       87172  ffunicode.o(.constdata)
    oem2uni936                               0x08037e20   Data       87172  ffunicode.o(.constdata)
    cvt1                                     0x0804d2a4   Data         498  ffunicode.o(.constdata)
    cvt2                                     0x0804d496   Data         188  ffunicode.o(.constdata)
    .constdata                               0x0804d552   Section       40  _printf_hex_int_ll_ptr.o(.constdata)
    uc_hextab                                0x0804d552   Data          20  _printf_hex_int_ll_ptr.o(.constdata)
    lc_hextab                                0x0804d566   Data          20  _printf_hex_int_ll_ptr.o(.constdata)
    .constdata                               0x0804d57a   Section       17  __printf_flags_ss_wp.o(.constdata)
    maptable                                 0x0804d57a   Data          17  __printf_flags_ss_wp.o(.constdata)
    .constdata                               0x0804d590   Section      136  pow.o(.constdata)
    bp                                       0x0804d590   Data          16  pow.o(.constdata)
    dp_h                                     0x0804d5a0   Data          16  pow.o(.constdata)
    dp_l                                     0x0804d5b0   Data          16  pow.o(.constdata)
    L                                        0x0804d5c0   Data          48  pow.o(.constdata)
    P                                        0x0804d5f0   Data          40  pow.o(.constdata)
    .constdata                               0x0804d618   Section        8  _printf_wctomb.o(.constdata)
    initial_mbstate                          0x0804d618   Data           8  _printf_wctomb.o(.constdata)
    .constdata                               0x0804d620   Section        8  qnan.o(.constdata)
    .constdata                               0x0804d628   Section       38  _printf_fp_hex.o(.constdata)
    lc_hextab                                0x0804d628   Data          19  _printf_fp_hex.o(.constdata)
    uc_hextab                                0x0804d63b   Data          19  _printf_fp_hex.o(.constdata)
    .constdata                               0x0804d650   Section      148  bigflt0.o(.constdata)
    tenpwrs_x                                0x0804d650   Data          60  bigflt0.o(.constdata)
    tenpwrs_i                                0x0804d68c   Data          64  bigflt0.o(.constdata)
    .conststring                             0x0804d6e4   Section     1223  mystring.o(.conststring)
    .conststring                             0x0804dbac   Section      154  load_sensor.o(.conststring)
    c$$dinf                                  0x0804dc68   Section        8  fpconst.o(c$$dinf)
    locale$$data                             0x0804dc70   Section      272  lc_ctype_c.o(locale$$data)
    __lcctype_c_name                         0x0804dc74   Data           2  lc_ctype_c.o(locale$$data)
    __lcctype_c_start                        0x0804dc7c   Data           0  lc_ctype_c.o(locale$$data)
    locale$$data                             0x0804dd80   Section       28  lc_numeric_c.o(locale$$data)
    __lcctype_c_end                          0x0804dd80   Data           0  lc_ctype_c.o(locale$$data)
    __lcnum_c_name                           0x0804dd84   Data           2  lc_numeric_c.o(locale$$data)
    __lcnum_c_start                          0x0804dd8c   Data           0  lc_numeric_c.o(locale$$data)
    __lcnum_c_point                          0x0804dd98   Data           0  lc_numeric_c.o(locale$$data)
    __lcnum_c_thousands                      0x0804dd9a   Data           0  lc_numeric_c.o(locale$$data)
    __lcnum_c_grouping                       0x0804dd9b   Data           0  lc_numeric_c.o(locale$$data)
    __lcnum_c_end                            0x0804dd9c   Data           0  lc_numeric_c.o(locale$$data)
    .data                                    0x10000000   Section       20  system_stm32f4xx.o(.data)
    .data                                    0x10000014   Section      164  user_task.o(.data)
    pig_eat_status                           0x10000018   Data           4  user_task.o(.data)
    upload_data                              0x1000001c   Data          76  user_task.o(.data)
    last_fodder_weight                       0x10000068   Data           4  user_task.o(.data)
    now_fodder_weight                        0x1000006c   Data           4  user_task.o(.data)
    prv_old_status                           0x100000ac   Data           1  user_task.o(.data)
    times                                    0x100000b0   Data           4  user_task.o(.data)
    fc                                       0x100000b4   Data           4  user_task.o(.data)
    .data                                    0x100000b8   Section       12  cjson.o(.data)
    ep                                       0x100000b8   Data           4  cjson.o(.data)
    cJSON_malloc                             0x100000bc   Data           4  cjson.o(.data)
    cJSON_free                               0x100000c0   Data           4  cjson.o(.data)
    .data                                    0x100000c4   Section      392  mystring.o(.data)
    .data                                    0x1000024c   Section        1  hardcontrol.o(.data)
    e_motor_flag                             0x1000024c   Data           1  hardcontrol.o(.data)
    .data                                    0x10000250   Section        6  cmd_queue.o(.data)
    cmd_state                                0x10000250   Data           4  cmd_queue.o(.data)
    cmd_pos                                  0x10000254   Data           2  cmd_queue.o(.data)
    .data                                    0x10000258   Section       12  cmd_process.o(.data)
    k                                        0x10000260   Data           4  cmd_process.o(.data)
    .data                                    0x10000264   Section        8  uart_rfid.o(.data)
    cmd_state                                0x10000264   Data           4  uart_rfid.o(.data)
    cmd_pos                                  0x10000268   Data           4  uart_rfid.o(.data)
    .data                                    0x1000026c   Section        4  ads126x.o(.data)
    .data                                    0x10000270   Section      121  load_sensor.o(.data)
    temp1                                    0x10000270   Data           8  load_sensor.o(.data)
    temp2                                    0x10000278   Data           8  load_sensor.o(.data)
    temp3                                    0x10000280   Data           8  load_sensor.o(.data)
    temp4                                    0x10000288   Data           8  load_sensor.o(.data)
    temp5                                    0x10000290   Data           8  load_sensor.o(.data)
    k1                                       0x10000298   Data           8  load_sensor.o(.data)
    k2                                       0x100002a0   Data           8  load_sensor.o(.data)
    k3                                       0x100002a8   Data           8  load_sensor.o(.data)
    k4                                       0x100002b0   Data           8  load_sensor.o(.data)
    k5                                       0x100002b8   Data           8  load_sensor.o(.data)
    kw                                       0x100002c0   Data           8  load_sensor.o(.data)
    M1                                       0x100002c8   Data           4  load_sensor.o(.data)
    M2                                       0x100002cc   Data           4  load_sensor.o(.data)
    avg                                      0x100002d8   Data           8  load_sensor.o(.data)
    avg1                                     0x100002e0   Data           8  load_sensor.o(.data)
    c                                        0x100002e8   Data           1  load_sensor.o(.data)
    .data                                    0x100002ec   Section      104  24cxx.o(.data)
    .data                                    0x10000354   Section       60  tasks.o(.data)
    pxDelayedTaskList                        0x10000358   Data           4  tasks.o(.data)
    pxOverflowDelayedTaskList                0x1000035c   Data           4  tasks.o(.data)
    uxDeletedTasksWaitingCleanUp             0x10000360   Data           4  tasks.o(.data)
    uxCurrentNumberOfTasks                   0x10000364   Data           4  tasks.o(.data)
    xTickCount                               0x10000368   Data           4  tasks.o(.data)
    uxTopReadyPriority                       0x1000036c   Data           4  tasks.o(.data)
    xSchedulerRunning                        0x10000370   Data           4  tasks.o(.data)
    uxPendedTicks                            0x10000374   Data           4  tasks.o(.data)
    xYieldPending                            0x10000378   Data           4  tasks.o(.data)
    xNumOfOverflows                          0x1000037c   Data           4  tasks.o(.data)
    uxTaskNumber                             0x10000380   Data           4  tasks.o(.data)
    xNextTaskUnblockTime                     0x10000384   Data           4  tasks.o(.data)
    xIdleTaskHandle                          0x10000388   Data           4  tasks.o(.data)
    uxSchedulerSuspended                     0x1000038c   Data           4  tasks.o(.data)
    .data                                    0x10000390   Section       20  timers.o(.data)
    pxCurrentTimerList                       0x10000390   Data           4  timers.o(.data)
    pxOverflowTimerList                      0x10000394   Data           4  timers.o(.data)
    xTimerQueue                              0x10000398   Data           4  timers.o(.data)
    xTimerTaskHandle                         0x1000039c   Data           4  timers.o(.data)
    xLastTime                                0x100003a0   Data           4  timers.o(.data)
    .data                                    0x100003a4   Section       12  port.o(.data)
    uxCriticalNesting                        0x100003a4   Data           4  port.o(.data)
    ucMaxSysCallPriority                     0x100003a8   Data           1  port.o(.data)
    ulMaxPRIGROUPValue                       0x100003ac   Data           4  port.o(.data)
    .data                                    0x100003b0   Section       24  heap_5.o(.data)
    xStart                                   0x100003b0   Data           8  heap_5.o(.data)
    pxEnd                                    0x100003b8   Data           4  heap_5.o(.data)
    xFreeBytesRemaining                      0x100003bc   Data           4  heap_5.o(.data)
    xMinimumEverFreeBytesRemaining           0x100003c0   Data           4  heap_5.o(.data)
    xBlockAllocatedBit                       0x100003c4   Data           4  heap_5.o(.data)
    .data                                    0x100003c8   Section        6  ff.o(.data)
    FatFs                                    0x100003c8   Data           4  ff.o(.data)
    Fsid                                     0x100003cc   Data           2  ff.o(.data)
    .data                                    0x100003d0   Section       20  exfuns.o(.data)
    .data                                    0x100003e4   Section       16  sdio_sdcard.o(.data)
    CardType                                 0x100003e4   Data           1  sdio_sdcard.o(.data)
    RCA                                      0x100003e8   Data           4  sdio_sdcard.o(.data)
    DeviceMode                               0x100003ec   Data           1  sdio_sdcard.o(.data)
    StopCondition                            0x100003ed   Data           1  sdio_sdcard.o(.data)
    .data                                    0x100003f4   Section       16  stm32f4xx_rcc.o(.data)
    APBAHBPrescTable                         0x100003f4   Data          16  stm32f4xx_rcc.o(.data)
    .data                                    0x10000404   Section        4  delay.o(.data)
    fac_us                                   0x10000404   Data           1  delay.o(.data)
    fac_ms                                   0x10000406   Data           2  delay.o(.data)
    .data                                    0x10000408   Section        4  usart.o(.data)
    .bss                                     0x10000410   Section     1640  user_task.o(.bss)
    weight                                   0x10000410   Data         800  user_task.o(.bss)
    fno                                      0x10000730   Data         280  user_task.o(.bss)
    fno                                      0x10000848   Data         280  user_task.o(.bss)
    fno                                      0x10000960   Data         280  user_task.o(.bss)
    .bss                                     0x10000a78   Section     1028  cmd_queue.o(.bss)
    que                                      0x10000a78   Data        1028  cmd_queue.o(.bss)
    .bss                                     0x10000e7c   Section      224  cmd_process.o(.bss)
    .bss                                     0x10000f5c   Section      508  uart_rfid.o(.bss)
    que                                      0x10000f5c   Data         508  uart_rfid.o(.bss)
    .bss                                     0x10001158   Section      160  load_sensor.o(.bss)
    a                                        0x10001158   Data          32  load_sensor.o(.bss)
    b                                        0x10001178   Data          32  load_sensor.o(.bss)
    c                                        0x10001198   Data          32  load_sensor.o(.bss)
    d                                        0x100011b8   Data          32  load_sensor.o(.bss)
    tmp                                      0x100011d8   Data          32  load_sensor.o(.bss)
    .bss                                     0x100011f8   Section       64  queue.o(.bss)
    .bss                                     0x10001238   Section      740  tasks.o(.bss)
    pxReadyTasksLists                        0x10001238   Data         640  tasks.o(.bss)
    xDelayedTaskList1                        0x100014b8   Data          20  tasks.o(.bss)
    xDelayedTaskList2                        0x100014cc   Data          20  tasks.o(.bss)
    xPendingReadyList                        0x100014e0   Data          20  tasks.o(.bss)
    xTasksWaitingTermination                 0x100014f4   Data          20  tasks.o(.bss)
    xSuspendedTaskList                       0x10001508   Data          20  tasks.o(.bss)
    .bss                                     0x1000151c   Section       40  timers.o(.bss)
    xActiveTimerList1                        0x1000151c   Data          20  timers.o(.bss)
    xActiveTimerList2                        0x10001530   Data          20  timers.o(.bss)
    .bss                                     0x10001548   Section      704  sdio_sdcard.o(.bss)
    CSD_Tab                                  0x1000158c   Data          16  sdio_sdcard.o(.bss)
    CID_Tab                                  0x1000159c   Data          16  sdio_sdcard.o(.bss)
    .bss                                     0x10001808   Section      228  rand.o(.bss)
    .bss                                     0x100018ec   Section       96  libspace.o(.bss)
    HEAP                                     0x10001950   Section      512  startup_stm32f40_41xxx.o(HEAP)
    Heap_Mem                                 0x10001950   Data         512  startup_stm32f40_41xxx.o(HEAP)
    STACK                                    0x10001b50   Section     1024  startup_stm32f40_41xxx.o(STACK)
    Stack_Mem                                0x10001b50   Data        1024  startup_stm32f40_41xxx.o(STACK)
    __initial_sp                             0x10001f50   Data           0  startup_stm32f40_41xxx.o(STACK)

    Global Symbols

    Symbol Name                              Value     Ov Type        Size  Object(Section)

    BuildAttributes$$THM_ISAv4$E$P$D$K$B$S$7EM$VFPi3$EXTD16$VFPS$VFMA$PE$A:L22UL41UL21$X:L11$S22US41US21$IEEE1$IW$USESV6$~STKCKD$USESV7$~SHL$OTIME$ROPI$IEEEX$EBA8$UX$STANDARDLIB$REQ8$PRES8$EABIv2 0x00000000   Number         0  anon$$obj.o ABSOLUTE
    __ARM_use_no_argv                        0x00000000   Number         0  main.o ABSOLUTE
    _printf_flags                            0x00000000   Number         0  printf_stubs.o ABSOLUTE
    _printf_return_value                     0x00000000   Number         0  printf_stubs.o ABSOLUTE
    _printf_sizespec                         0x00000000   Number         0  printf_stubs.o ABSOLUTE
    _printf_widthprec                        0x00000000   Number         0  printf_stubs.o ABSOLUTE
    __ARM_exceptions_init                     - Undefined Weak Reference
    __alloca_initialize                       - Undefined Weak Reference
    __arm_preinit_                            - Undefined Weak Reference
    __cpp_initialize__aeabi_                  - Undefined Weak Reference
    __cxa_finalize                            - Undefined Weak Reference
    __sigvec_lookup                           - Undefined Weak Reference
    __user_heap_extent                        - Undefined Weak Reference
    _atexit_init                              - Undefined Weak Reference
    _call_atexit_fns                          - Undefined Weak Reference
    _clock_init                               - Undefined Weak Reference
    _fp_trap_init                             - Undefined Weak Reference
    _fp_trap_shutdown                         - Undefined Weak Reference
    _get_lc_collate                           - Undefined Weak Reference
    _get_lc_monetary                          - Undefined Weak Reference
    _get_lc_time                              - Undefined Weak Reference
    _getenv_init                              - Undefined Weak Reference
    _handle_redirection                       - Undefined Weak Reference
    _initio                                   - Undefined Weak Reference
    _mutex_acquire                            - Undefined Weak Reference
    _mutex_free                               - Undefined Weak Reference
    _mutex_release                            - Undefined Weak Reference
    _printf_mbtowc                            - Undefined Weak Reference
    _printf_wc                                - Undefined Weak Reference
    _scanf_longlong                           - Undefined Weak Reference
    _scanf_mbtowc                             - Undefined Weak Reference
    _scanf_string                             - Undefined Weak Reference
    _scanf_wctomb                             - Undefined Weak Reference
    _scanf_wstring                            - Undefined Weak Reference
    _signal_finish                            - Undefined Weak Reference
    _signal_init                              - Undefined Weak Reference
    _terminateio                              - Undefined Weak Reference
    __Vectors_Size                           0x00000188   Number         0  startup_stm32f40_41xxx.o ABSOLUTE
    __Vectors                                0x08000000   Data           4  startup_stm32f40_41xxx.o(RESET)
    __Vectors_End                            0x08000188   Data           0  startup_stm32f40_41xxx.o(RESET)
    __main                                   0x08000189   Thumb Code     8  __main.o(!!!main)
    __scatterload                            0x08000191   Thumb Code     0  __scatter.o(!!!scatter)
    __scatterload_rt2                        0x08000191   Thumb Code    44  __scatter.o(!!!scatter)
    __scatterload_rt2_thumb_only             0x08000191   Thumb Code     0  __scatter.o(!!!scatter)
    __scatterload_null                       0x0800019f   Thumb Code     0  __scatter.o(!!!scatter)
    __decompress                             0x080001c5   Thumb Code    90  __dczerorl2.o(!!dczerorl2)
    __decompress1                            0x080001c5   Thumb Code     0  __dczerorl2.o(!!dczerorl2)
    __scatterload_zeroinit                   0x08000221   Thumb Code    28  __scatter_zi.o(!!handler_zi)
    _printf_n                                0x0800023d   Thumb Code     0  _printf_n.o(.ARM.Collect$$_printf_percent$$00000001)
    _printf_percent                          0x0800023d   Thumb Code     0  _printf_percent.o(.ARM.Collect$$_printf_percent$$00000000)
    _printf_p                                0x08000243   Thumb Code     0  _printf_p.o(.ARM.Collect$$_printf_percent$$00000002)
    _printf_f                                0x08000249   Thumb Code     0  _printf_f.o(.ARM.Collect$$_printf_percent$$00000003)
    _printf_e                                0x0800024f   Thumb Code     0  _printf_e.o(.ARM.Collect$$_printf_percent$$00000004)
    _printf_g                                0x08000255   Thumb Code     0  _printf_g.o(.ARM.Collect$$_printf_percent$$00000005)
    _printf_a                                0x0800025b   Thumb Code     0  _printf_a.o(.ARM.Collect$$_printf_percent$$00000006)
    _printf_ll                               0x08000261   Thumb Code     0  _printf_ll.o(.ARM.Collect$$_printf_percent$$00000007)
    _printf_i                                0x0800026b   Thumb Code     0  _printf_i.o(.ARM.Collect$$_printf_percent$$00000008)
    _printf_d                                0x08000271   Thumb Code     0  _printf_d.o(.ARM.Collect$$_printf_percent$$00000009)
    _printf_u                                0x08000277   Thumb Code     0  _printf_u.o(.ARM.Collect$$_printf_percent$$0000000A)
    _printf_o                                0x0800027d   Thumb Code     0  _printf_o.o(.ARM.Collect$$_printf_percent$$0000000B)
    _printf_x                                0x08000283   Thumb Code     0  _printf_x.o(.ARM.Collect$$_printf_percent$$0000000C)
    _printf_lli                              0x08000289   Thumb Code     0  _printf_lli.o(.ARM.Collect$$_printf_percent$$0000000D)
    _printf_lld                              0x0800028f   Thumb Code     0  _printf_lld.o(.ARM.Collect$$_printf_percent$$0000000E)
    _printf_llu                              0x08000295   Thumb Code     0  _printf_llu.o(.ARM.Collect$$_printf_percent$$0000000F)
    _printf_llo                              0x0800029b   Thumb Code     0  _printf_llo.o(.ARM.Collect$$_printf_percent$$00000010)
    _printf_llx                              0x080002a1   Thumb Code     0  _printf_llx.o(.ARM.Collect$$_printf_percent$$00000011)
    _printf_l                                0x080002a7   Thumb Code     0  _printf_l.o(.ARM.Collect$$_printf_percent$$00000012)
    _printf_c                                0x080002b1   Thumb Code     0  _printf_c.o(.ARM.Collect$$_printf_percent$$00000013)
    _printf_s                                0x080002b7   Thumb Code     0  _printf_s.o(.ARM.Collect$$_printf_percent$$00000014)
    _printf_lc                               0x080002bd   Thumb Code     0  _printf_lc.o(.ARM.Collect$$_printf_percent$$00000015)
    _printf_ls                               0x080002c3   Thumb Code     0  _printf_ls.o(.ARM.Collect$$_printf_percent$$00000016)
    _printf_percent_end                      0x080002c9   Thumb Code     0  _printf_percent_end.o(.ARM.Collect$$_printf_percent$$00000017)
    __rt_lib_init                            0x080002cd   Thumb Code     0  libinit.o(.ARM.Collect$$libinit$$00000000)
    __rt_lib_init_fp_1                       0x080002cf   Thumb Code     0  libinit2.o(.ARM.Collect$$libinit$$00000001)
    __rt_lib_init_heap_2                     0x080002d3   Thumb Code     0  libinit2.o(.ARM.Collect$$libinit$$00000005)
    __rt_lib_init_preinit_1                  0x080002d3   Thumb Code     0  libinit2.o(.ARM.Collect$$libinit$$00000004)
    __rt_lib_init_heap_1                     0x080002db   Thumb Code     0  libinit2.o(.ARM.Collect$$libinit$$0000000A)
    __rt_lib_init_rand_2                     0x080002db   Thumb Code     0  libinit2.o(.ARM.Collect$$libinit$$0000000D)
    __rt_lib_init_user_alloc_1               0x080002db   Thumb Code     0  libinit2.o(.ARM.Collect$$libinit$$0000000C)
    __rt_lib_init_lc_common                  0x080002df   Thumb Code     0  libinit2.o(.ARM.Collect$$libinit$$0000000F)
    __rt_lib_init_rand_1                     0x080002df   Thumb Code     0  libinit2.o(.ARM.Collect$$libinit$$0000000E)
    __rt_lib_init_lc_collate_1               0x080002e5   Thumb Code     0  libinit2.o(.ARM.Collect$$libinit$$00000011)
    __rt_lib_init_lc_ctype_2                 0x080002e5   Thumb Code     0  libinit2.o(.ARM.Collect$$libinit$$00000012)
    __rt_lib_init_lc_ctype_1                 0x080002f1   Thumb Code     0  libinit2.o(.ARM.Collect$$libinit$$00000013)
    __rt_lib_init_lc_monetary_1              0x080002f1   Thumb Code     0  libinit2.o(.ARM.Collect$$libinit$$00000015)
    __rt_lib_init_lc_numeric_2               0x080002f1   Thumb Code     0  libinit2.o(.ARM.Collect$$libinit$$00000016)
    __rt_lib_init_alloca_1                   0x080002fb   Thumb Code     0  libinit2.o(.ARM.Collect$$libinit$$0000002E)
    __rt_lib_init_argv_1                     0x080002fb   Thumb Code     0  libinit2.o(.ARM.Collect$$libinit$$0000002C)
    __rt_lib_init_atexit_1                   0x080002fb   Thumb Code     0  libinit2.o(.ARM.Collect$$libinit$$0000001B)
    __rt_lib_init_clock_1                    0x080002fb   Thumb Code     0  libinit2.o(.ARM.Collect$$libinit$$00000021)
    __rt_lib_init_cpp_1                      0x080002fb   Thumb Code     0  libinit2.o(.ARM.Collect$$libinit$$00000032)
    __rt_lib_init_exceptions_1               0x080002fb   Thumb Code     0  libinit2.o(.ARM.Collect$$libinit$$00000030)
    __rt_lib_init_fp_trap_1                  0x080002fb   Thumb Code     0  libinit2.o(.ARM.Collect$$libinit$$0000001F)
    __rt_lib_init_getenv_1                   0x080002fb   Thumb Code     0  libinit2.o(.ARM.Collect$$libinit$$00000023)
    __rt_lib_init_lc_numeric_1               0x080002fb   Thumb Code     0  libinit2.o(.ARM.Collect$$libinit$$00000017)
    __rt_lib_init_lc_time_1                  0x080002fb   Thumb Code     0  libinit2.o(.ARM.Collect$$libinit$$00000019)
    __rt_lib_init_return                     0x080002fb   Thumb Code     0  libinit2.o(.ARM.Collect$$libinit$$00000033)
    __rt_lib_init_signal_1                   0x080002fb   Thumb Code     0  libinit2.o(.ARM.Collect$$libinit$$0000001D)
    __rt_lib_init_stdio_1                    0x080002fb   Thumb Code     0  libinit2.o(.ARM.Collect$$libinit$$00000025)
    __rt_lib_shutdown                        0x080002fd   Thumb Code     0  libshutdown.o(.ARM.Collect$$libshutdown$$00000000)
    __rt_lib_shutdown_fp_trap_1              0x080002ff   Thumb Code     0  libshutdown2.o(.ARM.Collect$$libshutdown$$00000006)
    __rt_lib_shutdown_heap_1                 0x080002ff   Thumb Code     0  libshutdown2.o(.ARM.Collect$$libshutdown$$0000000E)
    __rt_lib_shutdown_return                 0x080002ff   Thumb Code     0  libshutdown2.o(.ARM.Collect$$libshutdown$$0000000F)
    __rt_lib_shutdown_signal_1               0x080002ff   Thumb Code     0  libshutdown2.o(.ARM.Collect$$libshutdown$$00000009)
    __rt_lib_shutdown_stdio_1                0x080002ff   Thumb Code     0  libshutdown2.o(.ARM.Collect$$libshutdown$$00000003)
    __rt_lib_shutdown_user_alloc_1           0x080002ff   Thumb Code     0  libshutdown2.o(.ARM.Collect$$libshutdown$$0000000B)
    __rt_entry                               0x08000301   Thumb Code     0  __rtentry.o(.ARM.Collect$$rtentry$$00000000)
    __rt_entry_presh_1                       0x08000301   Thumb Code     0  __rtentry2.o(.ARM.Collect$$rtentry$$00000002)
    __rt_entry_sh                            0x08000301   Thumb Code     0  __rtentry4.o(.ARM.Collect$$rtentry$$00000004)
    __rt_entry_li                            0x08000307   Thumb Code     0  __rtentry2.o(.ARM.Collect$$rtentry$$0000000A)
    __rt_entry_postsh_1                      0x08000307   Thumb Code     0  __rtentry2.o(.ARM.Collect$$rtentry$$00000009)
    __rt_entry_main                          0x0800030b   Thumb Code     0  __rtentry2.o(.ARM.Collect$$rtentry$$0000000D)
    __rt_entry_postli_1                      0x0800030b   Thumb Code     0  __rtentry2.o(.ARM.Collect$$rtentry$$0000000C)
    __rt_exit                                0x08000313   Thumb Code     0  rtexit.o(.ARM.Collect$$rtexit$$00000000)
    __rt_exit_ls                             0x08000315   Thumb Code     0  rtexit2.o(.ARM.Collect$$rtexit$$00000003)
    __rt_exit_prels_1                        0x08000315   Thumb Code     0  rtexit2.o(.ARM.Collect$$rtexit$$00000002)
    __rt_exit_exit                           0x08000319   Thumb Code     0  rtexit2.o(.ARM.Collect$$rtexit$$00000004)
    SVC_Handler                              0x08000321   Thumb Code    28  port.o(.emb_text)
    __asm___6_port_c_39a90d8d__prvStartFirstTask 0x08000341   Thumb Code    36  port.o(.emb_text)
    __asm___6_port_c_39a90d8d__prvEnableVFP  0x08000369   Thumb Code    16  port.o(.emb_text)
    PendSV_Handler                           0x0800037d   Thumb Code    88  port.o(.emb_text)
    vPortGetIPSR                             0x080003d9   Thumb Code     6  port.o(.emb_text)
    WFI_SET                                  0x080003e1   Thumb Code     2  sys.o(.emb_text)
    INTX_DISABLE                             0x080003e3   Thumb Code     4  sys.o(.emb_text)
    INTX_ENABLE                              0x080003e7   Thumb Code     4  sys.o(.emb_text)
    MSR_MSP                                  0x080003eb   Thumb Code     6  sys.o(.emb_text)
    rand                                     0x080003f1   Thumb Code    48  rand.o(.emb_text)
    _maybe_terminate_alloc                   0x08000425   Thumb Code     0  maybetermalloc1.o(.emb_text)
    main                                     0x08000425   Thumb Code   286  main.o(.text)
    NMI_Handler                              0x080005c9   Thumb Code     2  stm32f4xx_it.o(.text)
    HardFault_Handler                        0x080005cb   Thumb Code     4  stm32f4xx_it.o(.text)
    MemManage_Handler                        0x080005cf   Thumb Code     4  stm32f4xx_it.o(.text)
    BusFault_Handler                         0x080005d3   Thumb Code     4  stm32f4xx_it.o(.text)
    UsageFault_Handler                       0x080005d7   Thumb Code     4  stm32f4xx_it.o(.text)
    DebugMon_Handler                         0x080005db   Thumb Code     2  stm32f4xx_it.o(.text)
    SystemInit                               0x080006b9   Thumb Code    88  system_stm32f4xx.o(.text)
    SystemCoreClockUpdate                    0x08000711   Thumb Code   174  system_stm32f4xx.o(.text)
    vUsart_report_msg                        0x080007ed   Thumb Code    46  user_task.o(.text)
    vPower_off                               0x0800081b   Thumb Code   198  user_task.o(.text)
    vWork_task                               0x08000b99   Thumb Code  3916  user_task.o(.text)
    vPower_on                                0x08001ae5   Thumb Code   148  user_task.o(.text)
    vDctft_task                              0x08001b79   Thumb Code    96  user_task.o(.text)
    vSave_data_task                          0x08001bd9   Thumb Code  1706  user_task.o(.text)
    vCan_send_task                           0x08002283   Thumb Code   456  user_task.o(.text)
    vCan_rec_task                            0x0800262f   Thumb Code    30  user_task.o(.text)
    vLed0_task                               0x0800264d   Thumb Code   680  user_task.o(.text)
    vUart_debug_task                         0x080028f5   Thumb Code   110  user_task.o(.text)
    StatusUpdatesCallback                    0x08002963   Thumb Code   418  user_task.o(.text)
    vStart_task                              0x08002b05   Thumb Code   402  user_task.o(.text)
    scan_files                               0x08002c97   Thumb Code   364  user_task.o(.text)
    delete_files                             0x08002e03   Thumb Code   128  user_task.o(.text)
    cJSON_GetErrorPtr                        0x08002e91   Thumb Code     6  cjson.o(.text)
    cJSON_InitHooks                          0x08002f0b   Thumb Code    48  cjson.o(.text)
    cJSON_Delete                             0x08002f55   Thumb Code    82  cjson.o(.text)
    cJSON_ParseWithOpts                      0x08003b5f   Thumb Code   150  cjson.o(.text)
    cJSON_Parse                              0x08003bf5   Thumb Code    16  cjson.o(.text)
    cJSON_Print                              0x08004385   Thumb Code    18  cjson.o(.text)
    cJSON_PrintUnformatted                   0x08004397   Thumb Code    18  cjson.o(.text)
    cJSON_PrintBuffered                      0x080043a9   Thumb Code    52  cjson.o(.text)
    cJSON_GetArraySize                       0x080043dd   Thumb Code    18  cjson.o(.text)
    cJSON_GetArrayItem                       0x080043ef   Thumb Code    18  cjson.o(.text)
    cJSON_GetObjectItem                      0x08004401   Thumb Code    30  cjson.o(.text)
    cJSON_AddItemToArray                     0x08004455   Thumb Code    42  cjson.o(.text)
    cJSON_AddItemToObject                    0x0800447f   Thumb Code    44  cjson.o(.text)
    cJSON_AddItemToObjectCS                  0x080044ab   Thumb Code    54  cjson.o(.text)
    cJSON_AddItemReferenceToArray            0x080044e1   Thumb Code    24  cjson.o(.text)
    cJSON_AddItemReferenceToObject           0x080044f9   Thumb Code    32  cjson.o(.text)
    cJSON_DetachItemFromArray                0x08004519   Thumb Code    66  cjson.o(.text)
    cJSON_DeleteItemFromArray                0x0800455b   Thumb Code    22  cjson.o(.text)
    cJSON_DetachItemFromObject               0x08004571   Thumb Code    50  cjson.o(.text)
    cJSON_DeleteItemFromObject               0x080045a3   Thumb Code    22  cjson.o(.text)
    cJSON_InsertItemInArray                  0x080045b9   Thumb Code    64  cjson.o(.text)
    cJSON_ReplaceItemInArray                 0x080045f9   Thumb Code    76  cjson.o(.text)
    cJSON_ReplaceItemInObject                0x08004645   Thumb Code    62  cjson.o(.text)
    cJSON_CreateNull                         0x08004683   Thumb Code    18  cjson.o(.text)
    cJSON_CreateTrue                         0x08004695   Thumb Code    18  cjson.o(.text)
    cJSON_CreateFalse                        0x080046a7   Thumb Code    18  cjson.o(.text)
    cJSON_CreateBool                         0x080046b9   Thumb Code    26  cjson.o(.text)
    cJSON_CreateNumber                       0x080046d3   Thumb Code    48  cjson.o(.text)
    cJSON_CreateString                       0x08004703   Thumb Code    28  cjson.o(.text)
    cJSON_CreateArray                        0x0800471f   Thumb Code    18  cjson.o(.text)
    cJSON_CreateObject                       0x08004731   Thumb Code    18  cjson.o(.text)
    cJSON_CreateIntArray                     0x08004743   Thumb Code    86  cjson.o(.text)
    cJSON_CreateFloatArray                   0x08004799   Thumb Code    96  cjson.o(.text)
    cJSON_CreateDoubleArray                  0x080047f9   Thumb Code    74  cjson.o(.text)
    cJSON_CreateStringArray                  0x08004843   Thumb Code    66  cjson.o(.text)
    cJSON_Duplicate                          0x08004885   Thumb Code   172  cjson.o(.text)
    cJSON_Minify                             0x08004931   Thumb Code   186  cjson.o(.text)
    GetString                                0x080049ed   Thumb Code    56  mystring.o(.text)
    vHard_io_init                            0x08004a41   Thumb Code   472  hardcontrol.o(.text)
    vMotor_run                               0x08004c49   Thumb Code    88  hardcontrol.o(.text)
    vMotor_stop                              0x08004ca1   Thumb Code    54  hardcontrol.o(.text)
    EXTI4_IRQHandler                         0x08004cd7   Thumb Code   106  hardcontrol.o(.text)
    vLed_init                                0x08004d79   Thumb Code   112  led.o(.text)
    queue_reset                              0x08004df1   Thumb Code    18  cmd_queue.o(.text)
    queue_push                               0x08004e03   Thumb Code    44  cmd_queue.o(.text)
    queue_find_cmd                           0x08004e7d   Thumb Code   122  cmd_queue.o(.text)
    DelayMS                                  0x08004f05   Thumb Code    24  hmi_driver.o(.text)
    SendStrings                              0x08004f1d   Thumb Code    22  hmi_driver.o(.text)
    SendNU8                                  0x08004f33   Thumb Code    26  hmi_driver.o(.text)
    SendNU16                                 0x08004f4d   Thumb Code    38  hmi_driver.o(.text)
    SetHandShake                             0x08004f73   Thumb Code    48  hmi_driver.o(.text)
    SetFcolor                                0x08004fa3   Thumb Code    62  hmi_driver.o(.text)
    SetBcolor                                0x08004fe1   Thumb Code    62  hmi_driver.o(.text)
    ColorPicker                              0x0800501f   Thumb Code    84  hmi_driver.o(.text)
    GUI_CleanScreen                          0x08005073   Thumb Code    48  hmi_driver.o(.text)
    SetTextSpace                             0x080050a3   Thumb Code    64  hmi_driver.o(.text)
    SetFont_Region                           0x080050e3   Thumb Code    84  hmi_driver.o(.text)
    SetFilterColor                           0x08005137   Thumb Code    76  hmi_driver.o(.text)
    DisText                                  0x08005183   Thumb Code   106  hmi_driver.o(.text)
    DisCursor                                0x080051ed   Thumb Code   108  hmi_driver.o(.text)
    DisFull_Image                            0x08005259   Thumb Code    70  hmi_driver.o(.text)
    DisArea_Image                            0x0800529f   Thumb Code   102  hmi_driver.o(.text)
    DisCut_Image                             0x08005305   Thumb Code   172  hmi_driver.o(.text)
    DisFlashImage                            0x080053b1   Thumb Code   114  hmi_driver.o(.text)
    GUI_Dot                                  0x08005423   Thumb Code    76  hmi_driver.o(.text)
    GUI_Line                                 0x0800546f   Thumb Code   108  hmi_driver.o(.text)
    GUI_ConDots                              0x080054db   Thumb Code    74  hmi_driver.o(.text)
    GUI_ConSpaceDots                         0x08005525   Thumb Code    92  hmi_driver.o(.text)
    GUI_FcolorConOffsetDots                  0x08005581   Thumb Code    92  hmi_driver.o(.text)
    GUI_BcolorConOffsetDots                  0x080055dd   Thumb Code    92  hmi_driver.o(.text)
    SetPowerSaving                           0x08005639   Thumb Code    84  hmi_driver.o(.text)
    GUI_FcolorConDots                        0x0800568d   Thumb Code    66  hmi_driver.o(.text)
    GUI_BcolorConDots                        0x080056cf   Thumb Code    66  hmi_driver.o(.text)
    GUI_Circle                               0x08005711   Thumb Code    90  hmi_driver.o(.text)
    GUI_CircleFill                           0x0800576b   Thumb Code    90  hmi_driver.o(.text)
    GUI_Arc                                  0x080057c5   Thumb Code   128  hmi_driver.o(.text)
    GUI_Rectangle                            0x08005845   Thumb Code   108  hmi_driver.o(.text)
    GUI_RectangleFill                        0x080058b1   Thumb Code   108  hmi_driver.o(.text)
    GUI_Ellipse                              0x0800591d   Thumb Code   108  hmi_driver.o(.text)
    GUI_EllipseFill                          0x08005989   Thumb Code   108  hmi_driver.o(.text)
    SetBackLight                             0x080059f5   Thumb Code    56  hmi_driver.o(.text)
    SetBuzzer                                0x08005a2d   Thumb Code    56  hmi_driver.o(.text)
    GUI_AreaInycolor                         0x08005a65   Thumb Code   108  hmi_driver.o(.text)
    SetTouchPaneOption                       0x08005ad1   Thumb Code   100  hmi_driver.o(.text)
    CalibrateTouchPane                       0x08005b35   Thumb Code    48  hmi_driver.o(.text)
    TestTouchPane                            0x08005b65   Thumb Code    48  hmi_driver.o(.text)
    LockDeviceConfig                         0x08005b95   Thumb Code    72  hmi_driver.o(.text)
    UnlockDeviceConfig                       0x08005bdd   Thumb Code    72  hmi_driver.o(.text)
    SetCommBps                               0x08005c25   Thumb Code    56  hmi_driver.o(.text)
    WriteLayer                               0x08005c5d   Thumb Code    56  hmi_driver.o(.text)
    DisplyLayer                              0x08005c95   Thumb Code    56  hmi_driver.o(.text)
    CopyLayer                                0x08005ccd   Thumb Code    64  hmi_driver.o(.text)
    ClearLayer                               0x08005d0d   Thumb Code    56  hmi_driver.o(.text)
    GUI_DispRTC                              0x08005d45   Thumb Code   126  hmi_driver.o(.text)
    WriteUserFlash                           0x08005dc3   Thumb Code    90  hmi_driver.o(.text)
    ReadUserFlash                            0x08005e1d   Thumb Code    92  hmi_driver.o(.text)
    GetScreen                                0x08005e79   Thumb Code    56  hmi_driver.o(.text)
    SetScreen                                0x08005eb1   Thumb Code    68  hmi_driver.o(.text)
    SetScreenUpdateEnable                    0x08005ef5   Thumb Code    56  hmi_driver.o(.text)
    SetControlFocus                          0x08005f2d   Thumb Code    90  hmi_driver.o(.text)
    SetControlVisiable                       0x08005f87   Thumb Code    90  hmi_driver.o(.text)
    SetControlEnable                         0x08005fe1   Thumb Code    90  hmi_driver.o(.text)
    SetButtonValue                           0x0800603b   Thumb Code    90  hmi_driver.o(.text)
    SetTextValue                             0x08006095   Thumb Code    90  hmi_driver.o(.text)
    ReadTextValue                            0x080060ef   Thumb Code    82  hmi_driver.o(.text)
    SetTextInt32                             0x08006141   Thumb Code   148  hmi_driver.o(.text)
    SetTextFloat                             0x080061d5   Thumb Code   148  hmi_driver.o(.text)
    SetProgressValue                         0x08006269   Thumb Code   112  hmi_driver.o(.text)
    SetMeterValue                            0x080062d9   Thumb Code   112  hmi_driver.o(.text)
    Set_picMeterValue                        0x08006349   Thumb Code    96  hmi_driver.o(.text)
    SetSliderValue                           0x080063a9   Thumb Code   112  hmi_driver.o(.text)
    SetSelectorValue                         0x08006419   Thumb Code    90  hmi_driver.o(.text)
    GetControlValue                          0x08006473   Thumb Code    82  hmi_driver.o(.text)
    AnimationStart                           0x080064c5   Thumb Code    82  hmi_driver.o(.text)
    AnimationStop                            0x08006517   Thumb Code    82  hmi_driver.o(.text)
    AnimationPause                           0x08006569   Thumb Code    82  hmi_driver.o(.text)
    AnimationPlayFrame                       0x080065bb   Thumb Code    90  hmi_driver.o(.text)
    AnimationPlayPrev                        0x08006615   Thumb Code    82  hmi_driver.o(.text)
    AnimationPlayNext                        0x08006667   Thumb Code    82  hmi_driver.o(.text)
    GraphChannelAdd                          0x080066b9   Thumb Code   108  hmi_driver.o(.text)
    GraphChannelDel                          0x08006725   Thumb Code    90  hmi_driver.o(.text)
    GraphChannelDataAdd                      0x0800677f   Thumb Code   118  hmi_driver.o(.text)
    GraphChannelDataClear                    0x080067f5   Thumb Code    90  hmi_driver.o(.text)
    GraphSetViewport                         0x0800684f   Thumb Code   152  hmi_driver.o(.text)
    BatchBegin                               0x080068e7   Thumb Code    40  hmi_driver.o(.text)
    BatchSetButtonValue                      0x0800690f   Thumb Code    38  hmi_driver.o(.text)
    BatchSetProgressValue                    0x08006935   Thumb Code    60  hmi_driver.o(.text)
    BatchSetSliderValue                      0x08006971   Thumb Code    60  hmi_driver.o(.text)
    BatchSetMeterValue                       0x080069ad   Thumb Code    60  hmi_driver.o(.text)
    GetStringLen                             0x080069e9   Thumb Code    18  hmi_driver.o(.text)
    BatchSetText                             0x080069fb   Thumb Code    56  hmi_driver.o(.text)
    BatchSetFrame                            0x08006a33   Thumb Code    44  hmi_driver.o(.text)
    BatchSetVisible                          0x08006a5f   Thumb Code    32  hmi_driver.o(.text)
    BatchSetEnable                           0x08006a7f   Thumb Code    32  hmi_driver.o(.text)
    BatchEnd                                 0x08006a9f   Thumb Code    32  hmi_driver.o(.text)
    SeTimer                                  0x08006abf   Thumb Code   112  hmi_driver.o(.text)
    StartTimer                               0x08006b2f   Thumb Code    82  hmi_driver.o(.text)
    StopTimer                                0x08006b81   Thumb Code    82  hmi_driver.o(.text)
    PauseTimer                               0x08006bd3   Thumb Code    82  hmi_driver.o(.text)
    SetControlBackColor                      0x08006c25   Thumb Code    96  hmi_driver.o(.text)
    SetControlForeColor                      0x08006c85   Thumb Code    96  hmi_driver.o(.text)
    ShowPopupMenu                            0x08006ce5   Thumb Code   108  hmi_driver.o(.text)
    ShowKeyboard                             0x08006d51   Thumb Code   116  hmi_driver.o(.text)
    SetLanguage                              0x08006dc5   Thumb Code    76  hmi_driver.o(.text)
    FlashBeginSaveControl                    0x08006e11   Thumb Code    86  hmi_driver.o(.text)
    FlashSaveControl                         0x08006e67   Thumb Code    32  hmi_driver.o(.text)
    FlashEndSaveControl                      0x08006e87   Thumb Code    32  hmi_driver.o(.text)
    FlashRestoreControl                      0x08006ea7   Thumb Code   114  hmi_driver.o(.text)
    HistoryGraph_SetValueInt8                0x08006f19   Thumb Code    98  hmi_driver.o(.text)
    HistoryGraph_SetValueInt16               0x08006f7b   Thumb Code    98  hmi_driver.o(.text)
    HistoryGraph_SetValueInt32               0x08006fdd   Thumb Code   144  hmi_driver.o(.text)
    HistoryGraph_SetValueFloat               0x0800706d   Thumb Code   136  hmi_driver.o(.text)
    HistoryGraph_EnableSampling              0x080070f5   Thumb Code    90  hmi_driver.o(.text)
    HistoryGraph_ShowChannel                 0x0800714f   Thumb Code   102  hmi_driver.o(.text)
    HistoryGraph_SetTimeLength               0x080071b5   Thumb Code   102  hmi_driver.o(.text)
    HistoryGraph_SetTimeFullScreen           0x0800721b   Thumb Code    88  hmi_driver.o(.text)
    HistoryGraph_SetTimeZoom                 0x08007273   Thumb Code   140  hmi_driver.o(.text)
    Record_SetEvent                          0x080072ff   Thumb Code   134  hmi_driver.o(.text)
    Record_ResetEvent                        0x08007385   Thumb Code   134  hmi_driver.o(.text)
    Record_Add                               0x0800740b   Thumb Code    90  hmi_driver.o(.text)
    Record_Clear                             0x08007465   Thumb Code    82  hmi_driver.o(.text)
    Record_SetOffset                         0x080074b7   Thumb Code    96  hmi_driver.o(.text)
    Record_GetCount                          0x08007517   Thumb Code    82  hmi_driver.o(.text)
    ReadRTC                                  0x08007569   Thumb Code    48  hmi_driver.o(.text)
    SetRTC                                   0x08007599   Thumb Code   116  hmi_driver.o(.text)
    PlayMusic                                0x0800760d   Thumb Code    66  hmi_driver.o(.text)
    vUart2_init                              0x08007651   Thumb Code   158  hmi_user_uart.o(.text)
    USART1_IRQHandler                        0x080076ef   Thumb Code    30  hmi_user_uart.o(.text)
    SendChar                                 0x0800770d   Thumb Code    20  hmi_user_uart.o(.text)
    NOTIFYHandShake                          0x0800772d   Thumb Code     2  cmd_process.o(.text)
    NotifyTimer                              0x0800772f   Thumb Code     2  cmd_process.o(.text)
    NotifySelector                           0x08007731   Thumb Code     2  cmd_process.o(.text)
    NotifyMenu                               0x08007733   Thumb Code   270  cmd_process.o(.text)
    NotifyMeter                              0x08007841   Thumb Code     2  cmd_process.o(.text)
    NotifySlider                             0x08007843   Thumb Code     2  cmd_process.o(.text)
    NotifyProgress                           0x08007845   Thumb Code     2  cmd_process.o(.text)
    NotifyText                               0x0800787f   Thumb Code   902  cmd_process.o(.text)
    NotifyButton                             0x08007c05   Thumb Code  1892  cmd_process.o(.text)
    NotifyScreen                             0x08008369   Thumb Code   626  cmd_process.o(.text)
    NotifyReadRTC                            0x080085db   Thumb Code   518  cmd_process.o(.text)
    NotifyReadFlash                          0x080087e1   Thumb Code     2  cmd_process.o(.text)
    NotifyWriteFlash                         0x080087e3   Thumb Code     2  cmd_process.o(.text)
    NotifyTouchXY                            0x080087e5   Thumb Code     2  cmd_process.o(.text)
    ProcessMessage                           0x080087e7   Thumb Code   384  cmd_process.o(.text)
    UpdateUI                                 0x08008967   Thumb Code     2  cmd_process.o(.text)
    IWDG_Init                                0x08008999   Thumb Code    36  iwdg.o(.text)
    IWDG_Feed                                0x080089bd   Thumb Code     8  iwdg.o(.text)
    rfid_queue_push                          0x08008a77   Thumb Code    44  uart_rfid.o(.text)
    vGet_rfid_num                            0x08008c9f   Thumb Code    70  uart_rfid.o(.text)
    vClose_rfid                              0x08008ce5   Thumb Code     8  uart_rfid.o(.text)
    vOpen_rfid                               0x08008ced   Thumb Code     8  uart_rfid.o(.text)
    vAdc_io_init                             0x08008dfd   Thumb Code   106  ads126x.o(.text)
    EXTI15_10_IRQHandler                     0x08008e67   Thumb Code    30  ads126x.o(.text)
    ADS126xSendResetCommand                  0x08008f0f   Thumb Code    30  ads126x.o(.text)
    vAdc_reg_set                             0x08008f2d   Thumb Code   190  ads126x.o(.text)
    ADS126xSendStartCommand                  0x080090dd   Thumb Code    30  ads126x.o(.text)
    ADS126xSendStopCommand                   0x080090fb   Thumb Code    30  ads126x.o(.text)
    dAdc_chx_data                            0x08009119   Thumb Code   342  ads126x.o(.text)
    fAdc_get_weight                          0x0800926f   Thumb Code  1096  ads126x.o(.text)
    vLoad_sys_init                           0x080096cd   Thumb Code   370  load_sensor.o(.text)
    vLoad_fodder_correction                  0x08009995   Thumb Code   180  load_sensor.o(.text)
    vLoad_weight_correction                  0x08009a49   Thumb Code 26000  load_sensor.o(.text)
    vLoad_weight_clear                       0x0800ffd9   Thumb Code   816  load_sensor.o(.text)
    vLoad_fodder_clear                       0x08010309   Thumb Code   262  load_sensor.o(.text)
    dFodder_data_get                         0x0801040f   Thumb Code   606  load_sensor.o(.text)
    dWeight_data_get                         0x080107d3   Thumb Code  2326  load_sensor.o(.text)
    SPI_SendByte                             0x08011125   Thumb Code   134  my_spi.o(.text)
    SPI_IO_INIT                              0x080111ab   Thumb Code    82  my_spi.o(.text)
    vCan1_mode_init                          0x08011201   Thumb Code   258  can.o(.text)
    CAN1_RX0_IRQHandler                      0x08011303   Thumb Code    58  can.o(.text)
    CAN1_Send_Msg                            0x0801133d   Thumb Code   110  can.o(.text)
    AT24CXX_Init                             0x080113c1   Thumb Code     8  24cxx.o(.text)
    ucPush_all_eedata                        0x080114c7   Thumb Code    54  24cxx.o(.text)
    AT24CXX_Check                            0x080114fd   Thumb Code    98  24cxx.o(.text)
    scPull_all_eedata                        0x0801155f   Thumb Code    90  24cxx.o(.text)
    ulPull_one_eedata                        0x080115b9   Thumb Code    14  24cxx.o(.text)
    vPush_one_eedata                         0x080115c7   Thumb Code    26  24cxx.o(.text)
    IIC_Init                                 0x08011619   Thumb Code    62  myiic.o(.text)
    IIC_Start                                0x08011657   Thumb Code    68  myiic.o(.text)
    IIC_Stop                                 0x0801169b   Thumb Code    62  myiic.o(.text)
    IIC_Wait_Ack                             0x080116d9   Thumb Code    88  myiic.o(.text)
    IIC_Ack                                  0x08011731   Thumb Code    66  myiic.o(.text)
    IIC_NAck                                 0x08011773   Thumb Code    66  myiic.o(.text)
    IIC_Send_Byte                            0x080117b5   Thumb Code    90  myiic.o(.text)
    IIC_Read_Byte                            0x0801180f   Thumb Code    94  myiic.o(.text)
    xEventGroupCreate                        0x08011881   Thumb Code    26  event_groups.o(.text)
    xEventGroupSetBits                       0x0801189b   Thumb Code   186  event_groups.o(.text)
    xEventGroupSync                          0x08011955   Thumb Code   232  event_groups.o(.text)
    xEventGroupWaitBits                      0x08011a5b   Thumb Code   298  event_groups.o(.text)
    xEventGroupClearBits                     0x08011b85   Thumb Code    72  event_groups.o(.text)
    vEventGroupClearBitsCallback             0x08011bcd   Thumb Code    16  event_groups.o(.text)
    xEventGroupClearBitsFromISR              0x08011bdd   Thumb Code    26  event_groups.o(.text)
    xEventGroupGetBitsFromISR                0x08011bf7   Thumb Code    44  event_groups.o(.text)
    vEventGroupDelete                        0x08011c23   Thumb Code    72  event_groups.o(.text)
    vEventGroupSetBitsCallback               0x08011c6b   Thumb Code    66  event_groups.o(.text)
    xEventGroupSetBitsFromISR                0x08011cad   Thumb Code    32  event_groups.o(.text)
    uxEventGroupGetNumber                    0x08011ccd   Thumb Code    14  event_groups.o(.text)
    vEventGroupSetNumber                     0x08011cdb   Thumb Code     4  event_groups.o(.text)
    vListInitialise                          0x08011cdf   Thumb Code    26  list.o(.text)
    vListInitialiseItem                      0x08011cf9   Thumb Code     6  list.o(.text)
    vListInsertEnd                           0x08011cff   Thumb Code    24  list.o(.text)
    vListInsert                              0x08011d17   Thumb Code    52  list.o(.text)
    uxListRemove                             0x08011d4b   Thumb Code    40  list.o(.text)
    xQueueGenericReset                       0x08011d75   Thumb Code   136  queue.o(.text)
    xQueueGenericCreate                      0x08011e2b   Thumb Code    80  queue.o(.text)
    xQueueGenericSend                        0x08012025   Thumb Code   470  queue.o(.text)
    xQueueCreateMutex                        0x08012219   Thumb Code    34  queue.o(.text)
    xQueueGiveMutexRecursive                 0x0801223b   Thumb Code    66  queue.o(.text)
    xQueueSemaphoreTake                      0x080122ab   Thumb Code   410  queue.o(.text)
    xQueueTakeMutexRecursive                 0x08012445   Thumb Code    72  queue.o(.text)
    xQueueCreateCountingSemaphore            0x0801248d   Thumb Code    80  queue.o(.text)
    xQueueGenericSendFromISR                 0x080124dd   Thumb Code   250  queue.o(.text)
    xQueueGiveFromISR                        0x080125d7   Thumb Code   228  queue.o(.text)
    xQueueReceive                            0x080126e5   Thumb Code   338  queue.o(.text)
    xQueuePeek                               0x08012837   Thumb Code   344  queue.o(.text)
    xQueueReceiveFromISR                     0x0801298f   Thumb Code   190  queue.o(.text)
    xQueuePeekFromISR                        0x08012a4d   Thumb Code   158  queue.o(.text)
    uxQueueMessagesWaiting                   0x08012aeb   Thumb Code    36  queue.o(.text)
    uxQueueSpacesAvailable                   0x08012b0f   Thumb Code    42  queue.o(.text)
    uxQueueMessagesWaitingFromISR            0x08012b39   Thumb Code    36  queue.o(.text)
    vQueueUnregisterQueue                    0x08012b5d   Thumb Code    44  queue.o(.text)
    vQueueDelete                             0x08012b89   Thumb Code    38  queue.o(.text)
    uxQueueGetQueueNumber                    0x08012baf   Thumb Code     6  queue.o(.text)
    vQueueSetQueueNumber                     0x08012bb5   Thumb Code     4  queue.o(.text)
    ucQueueGetQueueType                      0x08012bb9   Thumb Code     8  queue.o(.text)
    xQueueIsQueueEmptyFromISR                0x08012bc1   Thumb Code    38  queue.o(.text)
    xQueueIsQueueFullFromISR                 0x08012be7   Thumb Code    42  queue.o(.text)
    vQueueAddToRegistry                      0x08012c11   Thumb Code    38  queue.o(.text)
    pcQueueGetName                           0x08012c37   Thumb Code    38  queue.o(.text)
    vQueueWaitForMessageRestricted           0x08012c5d   Thumb Code    74  queue.o(.text)
    xQueueCreateSet                          0x08012ca7   Thumb Code    20  queue.o(.text)
    xQueueAddToSet                           0x08012cbb   Thumb Code    38  queue.o(.text)
    xQueueRemoveFromSet                      0x08012ce1   Thumb Code    48  queue.o(.text)
    xQueueSelectFromSet                      0x08012d11   Thumb Code    24  queue.o(.text)
    xQueueSelectFromSetFromISR               0x08012d29   Thumb Code    22  queue.o(.text)
    xTaskCreate                              0x08012edf   Thumb Code    96  tasks.o(.text)
    vTaskDelete                              0x08012f7b   Thumb Code   192  tasks.o(.text)
    xTaskIncrementTick                       0x0801303b   Thumb Code   384  tasks.o(.text)
    xTaskResumeAll                           0x080131bb   Thumb Code   218  tasks.o(.text)
    vTaskSuspendAll                          0x08013311   Thumb Code    12  tasks.o(.text)
    vTaskDelayUntil                          0x0801331d   Thumb Code   182  tasks.o(.text)
    vTaskDelay                               0x080133d3   Thumb Code    76  tasks.o(.text)
    eTaskGetState                            0x0801341f   Thumb Code   122  tasks.o(.text)
    uxTaskPriorityGet                        0x08013499   Thumb Code    30  tasks.o(.text)
    uxTaskPriorityGetFromISR                 0x080134b7   Thumb Code    62  tasks.o(.text)
    vTaskPrioritySet                         0x080134f5   Thumb Code   314  tasks.o(.text)
    vTaskSwitchContext                       0x0801362f   Thumb Code   114  tasks.o(.text)
    vTaskSuspend                             0x080136a1   Thumb Code   204  tasks.o(.text)
    vTaskResume                              0x080137b9   Thumb Code   122  tasks.o(.text)
    xTaskResumeFromISR                       0x08013833   Thumb Code   152  tasks.o(.text)
    vTaskStartScheduler                      0x08013927   Thumb Code   112  tasks.o(.text)
    vTaskEndScheduler                        0x08013997   Thumb Code    32  tasks.o(.text)
    xTaskGetTickCount                        0x080139b7   Thumb Code    78  tasks.o(.text)
    xTaskGetTickCountFromISR                 0x08013a05   Thumb Code    16  tasks.o(.text)
    uxTaskGetNumberOfTasks                   0x08013a15   Thumb Code     6  tasks.o(.text)
    pcTaskGetName                            0x08013a1b   Thumb Code    40  tasks.o(.text)
    vTaskGetInfo                             0x08013a59   Thumb Code   126  tasks.o(.text)
    uxTaskGetSystemState                     0x08013b41   Thumb Code   152  tasks.o(.text)
    vTaskPlaceOnEventList                    0x08013bd9   Thumb Code    46  tasks.o(.text)
    vTaskPlaceOnUnorderedEventList           0x08013c07   Thumb Code    88  tasks.o(.text)
    vTaskPlaceOnEventListRestricted          0x08013c5f   Thumb Code    54  tasks.o(.text)
    xTaskRemoveFromEventList                 0x08013c95   Thumb Code   122  tasks.o(.text)
    vTaskRemoveFromUnorderedEventList        0x08013d0f   Thumb Code   130  tasks.o(.text)
    vTaskSetTimeOutState                     0x08013d91   Thumb Code    44  tasks.o(.text)
    vTaskInternalSetTimeOutState             0x08013dbd   Thumb Code    14  tasks.o(.text)
    xTaskCheckForTimeOut                     0x08013dcb   Thumb Code   174  tasks.o(.text)
    vTaskMissedYield                         0x08013e79   Thumb Code     8  tasks.o(.text)
    uxTaskGetTaskNumber                      0x08013e81   Thumb Code    14  tasks.o(.text)
    vTaskSetTaskNumber                       0x08013e8f   Thumb Code     8  tasks.o(.text)
    uxTaskGetStackHighWaterMark              0x08013e97   Thumb Code    34  tasks.o(.text)
    xTaskGetCurrentTaskHandle                0x08013eb9   Thumb Code     6  tasks.o(.text)
    xTaskGetSchedulerState                   0x08013ebf   Thumb Code    24  tasks.o(.text)
    xTaskPriorityInherit                     0x08013ed7   Thumb Code   186  tasks.o(.text)
    xTaskPriorityDisinherit                  0x08013f91   Thumb Code   176  tasks.o(.text)
    vTaskPriorityDisinheritAfterTimeout      0x08014041   Thumb Code   218  tasks.o(.text)
    vTaskList                                0x08014145   Thumb Code   200  tasks.o(.text)
    uxTaskResetEventItemValue                0x0801420d   Thumb Code    72  tasks.o(.text)
    pvTaskIncrementMutexHeldCount            0x08014255   Thumb Code    26  tasks.o(.text)
    ulTaskNotifyTake                         0x0801426f   Thumb Code   108  tasks.o(.text)
    xTaskNotifyWait                          0x080142db   Thumb Code   150  tasks.o(.text)
    xTaskGenericNotify                       0x08014371   Thumb Code   256  tasks.o(.text)
    xTaskGenericNotifyFromISR                0x08014471   Thumb Code   310  tasks.o(.text)
    vTaskNotifyGiveFromISR                   0x080145a7   Thumb Code   232  tasks.o(.text)
    xTaskNotifyStateClear                    0x0801468f   Thumb Code    48  tasks.o(.text)
    xTimerGenericCommand                     0x0801471d   Thumb Code   118  timers.o(.text)
    xTimerCreateTimerTask                    0x08014a83   Thumb Code    56  timers.o(.text)
    xTimerCreate                             0x08014b61   Thumb Code    48  timers.o(.text)
    xTimerGetTimerDaemonTaskHandle           0x08014b91   Thumb Code    38  timers.o(.text)
    xTimerGetPeriod                          0x08014bb7   Thumb Code    28  timers.o(.text)
    xTimerGetExpiryTime                      0x08014bd3   Thumb Code    30  timers.o(.text)
    pcTimerGetName                           0x08014bf1   Thumb Code    28  timers.o(.text)
    xTimerIsTimerActive                      0x08014c0d   Thumb Code    56  timers.o(.text)
    pvTimerGetTimerID                        0x08014c45   Thumb Code    38  timers.o(.text)
    vTimerSetTimerID                         0x08014c6b   Thumb Code    38  timers.o(.text)
    xTimerPendFunctionCallFromISR            0x08014c91   Thumb Code    48  timers.o(.text)
    xTimerPendFunctionCall                   0x08014cc1   Thumb Code    70  timers.o(.text)
    uxTimerGetTimerNumber                    0x08014d07   Thumb Code     6  timers.o(.text)
    vTimerSetTimerNumber                     0x08014d0d   Thumb Code     4  timers.o(.text)
    pxPortInitialiseStack                    0x08014d49   Thumb Code    38  port.o(.text)
    vPortSetupTimerInterrupt                 0x08014d6f   Thumb Code    36  port.o(.text)
    xPortStartScheduler                      0x08014d93   Thumb Code   322  port.o(.text)
    vPortEndScheduler                        0x08014ed5   Thumb Code    34  port.o(.text)
    vPortEnterCritical                       0x08014ef7   Thumb Code    70  port.o(.text)
    vPortExitCritical                        0x08014f3d   Thumb Code    48  port.o(.text)
    xPortSysTickHandler                      0x08014f6d   Thumb Code    48  port.o(.text)
    vPortValidateInterruptPriority           0x08014f9d   Thumb Code    88  port.o(.text)
    pvPortMalloc                             0x080150b5   Thumb Code   194  heap_5.o(.text)
    vPortFree                                0x08015177   Thumb Code   120  heap_5.o(.text)
    xPortGetFreeHeapSize                     0x080151ef   Thumb Code     6  heap_5.o(.text)
    xPortGetMinimumEverFreeHeapSize          0x080151f5   Thumb Code     6  heap_5.o(.text)
    vPortDefineHeapRegions                   0x080151fb   Thumb Code   262  heap_5.o(.text)
    disk_initialize                          0x0801534d   Thumb Code    32  diskio.o(.text)
    disk_status                              0x0801536d   Thumb Code     6  diskio.o(.text)
    disk_read                                0x08015373   Thumb Code   110  diskio.o(.text)
    disk_write                               0x080153e1   Thumb Code   144  diskio.o(.text)
    disk_ioctl                               0x08015471   Thumb Code   102  diskio.o(.text)
    get_fattime                              0x080154d7   Thumb Code    48  diskio.o(.text)
    ff_memalloc                              0x08015507   Thumb Code    12  diskio.o(.text)
    ff_memfree                               0x08015513   Thumb Code    12  diskio.o(.text)
    f_mount                                  0x08016f45   Thumb Code   116  ff.o(.text)
    f_open                                   0x08016fb9   Thumb Code   554  ff.o(.text)
    f_read                                   0x080171e3   Thumb Code   512  ff.o(.text)
    f_write                                  0x080173e3   Thumb Code   580  ff.o(.text)
    f_sync                                   0x08017627   Thumb Code   176  ff.o(.text)
    f_close                                  0x080176d7   Thumb Code    42  ff.o(.text)
    f_chdir                                  0x08017701   Thumb Code   134  ff.o(.text)
    f_getcwd                                 0x08017787   Thumb Code   330  ff.o(.text)
    f_lseek                                  0x080178d1   Thumb Code   828  ff.o(.text)
    f_opendir                                0x08017c0d   Thumb Code   154  ff.o(.text)
    f_closedir                               0x08017ca7   Thumb Code    32  ff.o(.text)
    f_readdir                                0x08017cc7   Thumb Code   120  ff.o(.text)
    f_findnext                               0x08017d3f   Thumb Code    54  ff.o(.text)
    f_findfirst                              0x08017d75   Thumb Code    42  ff.o(.text)
    f_stat                                   0x08017d9f   Thumb Code   104  ff.o(.text)
    f_getfree                                0x08017e07   Thumb Code   254  ff.o(.text)
    f_truncate                               0x08017f05   Thumb Code   210  ff.o(.text)
    f_unlink                                 0x08017fd7   Thumb Code   236  ff.o(.text)
    f_mkdir                                  0x080180c3   Thumb Code   332  ff.o(.text)
    f_rename                                 0x0801820f   Thumb Code   332  ff.o(.text)
    f_chmod                                  0x0801835b   Thumb Code   138  ff.o(.text)
    f_utime                                  0x080183e5   Thumb Code   134  ff.o(.text)
    f_getlabel                               0x0801846b   Thumb Code   196  ff.o(.text)
    f_setlabel                               0x0801852f   Thumb Code   334  ff.o(.text)
    f_expand                                 0x0801867d   Thumb Code   342  ff.o(.text)
    f_forward                                0x080187d3   Thumb Code   418  ff.o(.text)
    f_mkfs                                   0x08018975   Thumb Code  1840  ff.o(.text)
    f_gets                                   0x080190a5   Thumb Code    86  ff.o(.text)
    f_putc                                   0x08019189   Thumb Code    34  ff.o(.text)
    f_puts                                   0x080191ab   Thumb Code    98  ff.o(.text)
    f_printf                                 0x0801920d   Thumb Code   618  ff.o(.text)
    ff_cre_syncobj                           0x08019477   Thumb Code    26  ffsystem.o(.text)
    ff_del_syncobj                           0x08019491   Thumb Code    12  ffsystem.o(.text)
    ff_req_grant                             0x0801949d   Thumb Code    24  ffsystem.o(.text)
    ff_rel_grant                             0x080194b5   Thumb Code    18  ffsystem.o(.text)
    ff_uni2oem                               0x080194c9   Thumb Code   110  ffunicode.o(.text)
    ff_oem2uni                               0x08019537   Thumb Code    98  ffunicode.o(.text)
    ff_wtoupper                              0x08019599   Thumb Code   166  ffunicode.o(.text)
    vFile_ver_malloc                         0x08019651   Thumb Code    96  exfuns.o(.text)
    SDIO_Register_Deinit                     0x0801972d   Thumb Code    48  sdio_sdcard.o(.text)
    SD_SetDeviceMode                         0x0801975d   Thumb Code    20  sdio_sdcard.o(.text)
    SDIO_Clock_Set                           0x08019771   Thumb Code    18  sdio_sdcard.o(.text)
    CmdResp1Error                            0x08019783   Thumb Code    96  sdio_sdcard.o(.text)
    FindSCR                                  0x080197e3   Thumb Code   390  sdio_sdcard.o(.text)
    SDEnWideBus                              0x08019969   Thumb Code   160  sdio_sdcard.o(.text)
    SD_EnableWideBusOperation                0x08019a09   Thumb Code    98  sdio_sdcard.o(.text)
    SD_SelectDeselect                        0x08019a6b   Thumb Code    42  sdio_sdcard.o(.text)
    SD_GetCardInfo                           0x08019a95   Thumb Code   806  sdio_sdcard.o(.text)
    CmdResp2Error                            0x08019dbb   Thumb Code    80  sdio_sdcard.o(.text)
    CmdResp6Error                            0x08019e0b   Thumb Code   144  sdio_sdcard.o(.text)
    SD_InitializeCards                       0x08019e9b   Thumb Code   354  sdio_sdcard.o(.text)
    CmdResp3Error                            0x08019ffd   Thumb Code    52  sdio_sdcard.o(.text)
    CmdResp7Error                            0x0801a031   Thumb Code    72  sdio_sdcard.o(.text)
    CmdError                                 0x0801a079   Thumb Code    48  sdio_sdcard.o(.text)
    SD_PowerON                               0x0801a0a9   Thumb Code   460  sdio_sdcard.o(.text)
    SD_Init                                  0x0801a275   Thumb Code   332  sdio_sdcard.o(.text)
    SD_PowerOFF                              0x0801a3c1   Thumb Code    12  sdio_sdcard.o(.text)
    SD_DMA_Config                            0x0801a3cd   Thumb Code   118  sdio_sdcard.o(.text)
    convert_from_bytes_to_power_of_two       0x0801a443   Thumb Code    18  sdio_sdcard.o(.text)
    SD_ReadBlock                             0x0801a455   Thumb Code   578  sdio_sdcard.o(.text)
    SD_ReadMultiBlocks                       0x0801a697   Thumb Code   764  sdio_sdcard.o(.text)
    IsCardProgramming                        0x0801a993   Thumb Code   150  sdio_sdcard.o(.text)
    SD_WriteBlock                            0x0801aa29   Thumb Code   914  sdio_sdcard.o(.text)
    SD_WriteMultiBlocks                      0x0801adbb   Thumb Code   976  sdio_sdcard.o(.text)
    SD_ProcessIRQSrc                         0x0801b18b   Thumb Code   322  sdio_sdcard.o(.text)
    SDIO_IRQHandler                          0x0801b2cd   Thumb Code     8  sdio_sdcard.o(.text)
    SD_SendStatus                            0x0801b2d5   Thumb Code    74  sdio_sdcard.o(.text)
    SD_GetState                              0x0801b31f   Thumb Code    26  sdio_sdcard.o(.text)
    SD_ReadDisk                              0x0801b339   Thumb Code   188  sdio_sdcard.o(.text)
    SD_WriteDisk                             0x0801b3f5   Thumb Code   148  sdio_sdcard.o(.text)
    NVIC_PriorityGroupConfig                 0x0801b48d   Thumb Code    10  misc.o(.text)
    NVIC_Init                                0x0801b497   Thumb Code   106  misc.o(.text)
    NVIC_SetVectorTable                      0x0801b501   Thumb Code    14  misc.o(.text)
    NVIC_SystemLPConfig                      0x0801b50f   Thumb Code    34  misc.o(.text)
    SysTick_CLKSourceConfig                  0x0801b531   Thumb Code    40  misc.o(.text)
    GPIO_DeInit                              0x0801b56d   Thumb Code   268  stm32f4xx_gpio.o(.text)
    GPIO_Init                                0x0801b679   Thumb Code   144  stm32f4xx_gpio.o(.text)
    GPIO_StructInit                          0x0801b709   Thumb Code    18  stm32f4xx_gpio.o(.text)
    GPIO_PinLockConfig                       0x0801b71b   Thumb Code    34  stm32f4xx_gpio.o(.text)
    GPIO_ReadInputDataBit                    0x0801b73d   Thumb Code    18  stm32f4xx_gpio.o(.text)
    GPIO_ReadInputData                       0x0801b74f   Thumb Code     8  stm32f4xx_gpio.o(.text)
    GPIO_ReadOutputDataBit                   0x0801b757   Thumb Code    18  stm32f4xx_gpio.o(.text)
    GPIO_ReadOutputData                      0x0801b769   Thumb Code     8  stm32f4xx_gpio.o(.text)
    GPIO_SetBits                             0x0801b771   Thumb Code     4  stm32f4xx_gpio.o(.text)
    GPIO_ResetBits                           0x0801b775   Thumb Code     4  stm32f4xx_gpio.o(.text)
    GPIO_WriteBit                            0x0801b779   Thumb Code    10  stm32f4xx_gpio.o(.text)
    GPIO_Write                               0x0801b783   Thumb Code     4  stm32f4xx_gpio.o(.text)
    GPIO_ToggleBits                          0x0801b787   Thumb Code     8  stm32f4xx_gpio.o(.text)
    GPIO_PinAFConfig                         0x0801b78f   Thumb Code    70  stm32f4xx_gpio.o(.text)
    RCC_DeInit                               0x0801b801   Thumb Code    82  stm32f4xx_rcc.o(.text)
    RCC_HSEConfig                            0x0801b853   Thumb Code    14  stm32f4xx_rcc.o(.text)
    RCC_GetFlagStatus                        0x0801b861   Thumb Code    60  stm32f4xx_rcc.o(.text)
    RCC_WaitForHSEStartUp                    0x0801b89d   Thumb Code    56  stm32f4xx_rcc.o(.text)
    RCC_AdjustHSICalibrationValue            0x0801b8d5   Thumb Code    20  stm32f4xx_rcc.o(.text)
    RCC_HSICmd                               0x0801b8e9   Thumb Code     6  stm32f4xx_rcc.o(.text)
    RCC_LSEConfig                            0x0801b8ef   Thumb Code    46  stm32f4xx_rcc.o(.text)
    RCC_LSICmd                               0x0801b91d   Thumb Code     6  stm32f4xx_rcc.o(.text)
    RCC_PLLConfig                            0x0801b923   Thumb Code    32  stm32f4xx_rcc.o(.text)
    RCC_PLLCmd                               0x0801b943   Thumb Code     6  stm32f4xx_rcc.o(.text)
    RCC_PLLI2SConfig                         0x0801b949   Thumb Code    14  stm32f4xx_rcc.o(.text)
    RCC_PLLI2SCmd                            0x0801b957   Thumb Code     6  stm32f4xx_rcc.o(.text)
    RCC_PLLSAIConfig                         0x0801b95d   Thumb Code    20  stm32f4xx_rcc.o(.text)
    RCC_PLLSAICmd                            0x0801b971   Thumb Code     6  stm32f4xx_rcc.o(.text)
    RCC_ClockSecuritySystemCmd               0x0801b977   Thumb Code     6  stm32f4xx_rcc.o(.text)
    RCC_MCO1Config                           0x0801b97d   Thumb Code    28  stm32f4xx_rcc.o(.text)
    RCC_MCO2Config                           0x0801b999   Thumb Code    28  stm32f4xx_rcc.o(.text)
    RCC_SYSCLKConfig                         0x0801b9b5   Thumb Code    20  stm32f4xx_rcc.o(.text)
    RCC_GetSYSCLKSource                      0x0801b9c9   Thumb Code    12  stm32f4xx_rcc.o(.text)
    RCC_HCLKConfig                           0x0801b9d5   Thumb Code    20  stm32f4xx_rcc.o(.text)
    RCC_PCLK1Config                          0x0801b9e9   Thumb Code    20  stm32f4xx_rcc.o(.text)
    RCC_PCLK2Config                          0x0801b9fd   Thumb Code    22  stm32f4xx_rcc.o(.text)
    RCC_GetClocksFreq                        0x0801ba13   Thumb Code   222  stm32f4xx_rcc.o(.text)
    RCC_RTCCLKConfig                         0x0801baf1   Thumb Code    54  stm32f4xx_rcc.o(.text)
    RCC_RTCCLKCmd                            0x0801bb27   Thumb Code     8  stm32f4xx_rcc.o(.text)
    RCC_BackupResetCmd                       0x0801bb2f   Thumb Code     8  stm32f4xx_rcc.o(.text)
    RCC_I2SCLKConfig                         0x0801bb37   Thumb Code     6  stm32f4xx_rcc.o(.text)
    RCC_SAIPLLI2SClkDivConfig                0x0801bb3d   Thumb Code    26  stm32f4xx_rcc.o(.text)
    RCC_SAIPLLSAIClkDivConfig                0x0801bb57   Thumb Code    28  stm32f4xx_rcc.o(.text)
    RCC_SAIBlockACLKConfig                   0x0801bb73   Thumb Code    20  stm32f4xx_rcc.o(.text)
    RCC_SAIBlockBCLKConfig                   0x0801bb87   Thumb Code    20  stm32f4xx_rcc.o(.text)
    RCC_LTDCCLKDivConfig                     0x0801bb9b   Thumb Code    20  stm32f4xx_rcc.o(.text)
    RCC_TIMCLKPresConfig                     0x0801bbaf   Thumb Code     6  stm32f4xx_rcc.o(.text)
    RCC_AHB1PeriphClockCmd                   0x0801bbb5   Thumb Code    34  stm32f4xx_rcc.o(.text)
    RCC_AHB2PeriphClockCmd                   0x0801bbd7   Thumb Code    78  stm32f4xx_rcc.o(.text)
    RCC_AHB3PeriphClockCmd                   0x0801bc25   Thumb Code    34  stm32f4xx_rcc.o(.text)
    RCC_APB1PeriphClockCmd                   0x0801bc47   Thumb Code    34  stm32f4xx_rcc.o(.text)
    RCC_APB2PeriphClockCmd                   0x0801bc69   Thumb Code    34  stm32f4xx_rcc.o(.text)
    RCC_AHB1PeriphResetCmd                   0x0801bc8b   Thumb Code    34  stm32f4xx_rcc.o(.text)
    RCC_AHB2PeriphResetCmd                   0x0801bcad   Thumb Code    34  stm32f4xx_rcc.o(.text)
    RCC_AHB3PeriphResetCmd                   0x0801bccf   Thumb Code    34  stm32f4xx_rcc.o(.text)
    RCC_APB1PeriphResetCmd                   0x0801bcf1   Thumb Code    34  stm32f4xx_rcc.o(.text)
    RCC_APB2PeriphResetCmd                   0x0801bd13   Thumb Code    34  stm32f4xx_rcc.o(.text)
    RCC_AHB1PeriphClockLPModeCmd             0x0801bd35   Thumb Code    34  stm32f4xx_rcc.o(.text)
    RCC_AHB2PeriphClockLPModeCmd             0x0801bd57   Thumb Code    34  stm32f4xx_rcc.o(.text)
    RCC_AHB3PeriphClockLPModeCmd             0x0801bd79   Thumb Code    34  stm32f4xx_rcc.o(.text)
    RCC_APB1PeriphClockLPModeCmd             0x0801bd9b   Thumb Code    34  stm32f4xx_rcc.o(.text)
    RCC_APB2PeriphClockLPModeCmd             0x0801bdbd   Thumb Code    34  stm32f4xx_rcc.o(.text)
    RCC_LSEModeConfig                        0x0801bddf   Thumb Code    40  stm32f4xx_rcc.o(.text)
    RCC_ITConfig                             0x0801be07   Thumb Code    34  stm32f4xx_rcc.o(.text)
    RCC_ClearFlag                            0x0801be29   Thumb Code    18  stm32f4xx_rcc.o(.text)
    RCC_GetITStatus                          0x0801be3b   Thumb Code    22  stm32f4xx_rcc.o(.text)
    RCC_ClearITPendingBit                    0x0801be51   Thumb Code     8  stm32f4xx_rcc.o(.text)
    SYSCFG_DeInit                            0x0801be5d   Thumb Code    22  stm32f4xx_syscfg.o(.text)
    SYSCFG_MemoryRemapConfig                 0x0801be73   Thumb Code     6  stm32f4xx_syscfg.o(.text)
    SYSCFG_MemorySwappingBank                0x0801be79   Thumb Code     6  stm32f4xx_syscfg.o(.text)
    SYSCFG_EXTILineConfig                    0x0801be7f   Thumb Code    66  stm32f4xx_syscfg.o(.text)
    SYSCFG_ETH_MediaInterfaceConfig          0x0801bec1   Thumb Code     8  stm32f4xx_syscfg.o(.text)
    SYSCFG_CompensationCellCmd               0x0801bec9   Thumb Code     6  stm32f4xx_syscfg.o(.text)
    SYSCFG_GetCompensationCellStatus         0x0801becf   Thumb Code    22  stm32f4xx_syscfg.o(.text)
    USART_DeInit                             0x0801bef1   Thumb Code   206  stm32f4xx_usart.o(.text)
    USART_Init                               0x0801bfbf   Thumb Code   204  stm32f4xx_usart.o(.text)
    USART_StructInit                         0x0801c08b   Thumb Code    24  stm32f4xx_usart.o(.text)
    USART_ClockInit                          0x0801c0a3   Thumb Code    32  stm32f4xx_usart.o(.text)
    USART_ClockStructInit                    0x0801c0c3   Thumb Code    12  stm32f4xx_usart.o(.text)
    USART_Cmd                                0x0801c0cf   Thumb Code    24  stm32f4xx_usart.o(.text)
    USART_SetPrescaler                       0x0801c0e7   Thumb Code    16  stm32f4xx_usart.o(.text)
    USART_OverSampling8Cmd                   0x0801c0f7   Thumb Code    22  stm32f4xx_usart.o(.text)
    USART_OneBitMethodCmd                    0x0801c10d   Thumb Code    24  stm32f4xx_usart.o(.text)
    USART_SendData                           0x0801c125   Thumb Code     8  stm32f4xx_usart.o(.text)
    USART_ReceiveData                        0x0801c12d   Thumb Code    10  stm32f4xx_usart.o(.text)
    USART_SetAddress                         0x0801c137   Thumb Code    18  stm32f4xx_usart.o(.text)
    USART_ReceiverWakeUpCmd                  0x0801c149   Thumb Code    24  stm32f4xx_usart.o(.text)
    USART_WakeUpConfig                       0x0801c161   Thumb Code    18  stm32f4xx_usart.o(.text)
    USART_LINBreakDetectLengthConfig         0x0801c173   Thumb Code    18  stm32f4xx_usart.o(.text)
    USART_LINCmd                             0x0801c185   Thumb Code    24  stm32f4xx_usart.o(.text)
    USART_SendBreak                          0x0801c19d   Thumb Code    10  stm32f4xx_usart.o(.text)
    USART_HalfDuplexCmd                      0x0801c1a7   Thumb Code    24  stm32f4xx_usart.o(.text)
    USART_SetGuardTime                       0x0801c1bf   Thumb Code    16  stm32f4xx_usart.o(.text)
    USART_SmartCardCmd                       0x0801c1cf   Thumb Code    24  stm32f4xx_usart.o(.text)
    USART_SmartCardNACKCmd                   0x0801c1e7   Thumb Code    24  stm32f4xx_usart.o(.text)
    USART_IrDAConfig                         0x0801c1ff   Thumb Code    18  stm32f4xx_usart.o(.text)
    USART_IrDACmd                            0x0801c211   Thumb Code    24  stm32f4xx_usart.o(.text)
    USART_DMACmd                             0x0801c229   Thumb Code    18  stm32f4xx_usart.o(.text)
    USART_ITConfig                           0x0801c23b   Thumb Code    74  stm32f4xx_usart.o(.text)
    USART_GetFlagStatus                      0x0801c285   Thumb Code    26  stm32f4xx_usart.o(.text)
    USART_ClearFlag                          0x0801c29f   Thumb Code    18  stm32f4xx_usart.o(.text)
    USART_GetITStatus                        0x0801c2b1   Thumb Code   118  stm32f4xx_usart.o(.text)
    USART_ClearITPendingBit                  0x0801c327   Thumb Code    30  stm32f4xx_usart.o(.text)
    EXTI_DeInit                              0x0801c345   Thumb Code    28  stm32f4xx_exti.o(.text)
    EXTI_Init                                0x0801c361   Thumb Code   142  stm32f4xx_exti.o(.text)
    EXTI_StructInit                          0x0801c3ef   Thumb Code    16  stm32f4xx_exti.o(.text)
    EXTI_GenerateSWInterrupt                 0x0801c3ff   Thumb Code    16  stm32f4xx_exti.o(.text)
    EXTI_GetFlagStatus                       0x0801c40f   Thumb Code    22  stm32f4xx_exti.o(.text)
    EXTI_ClearFlag                           0x0801c425   Thumb Code     8  stm32f4xx_exti.o(.text)
    EXTI_GetITStatus                         0x0801c42d   Thumb Code    22  stm32f4xx_exti.o(.text)
    EXTI_ClearITPendingBit                   0x0801c443   Thumb Code     8  stm32f4xx_exti.o(.text)
    SDIO_DeInit                              0x0801c455   Thumb Code    22  stm32f4xx_sdio.o(.text)
    SDIO_Init                                0x0801c46b   Thumb Code    42  stm32f4xx_sdio.o(.text)
    SDIO_StructInit                          0x0801c495   Thumb Code    16  stm32f4xx_sdio.o(.text)
    SDIO_ClockCmd                            0x0801c4a5   Thumb Code     6  stm32f4xx_sdio.o(.text)
    SDIO_SetPowerState                       0x0801c4ab   Thumb Code     8  stm32f4xx_sdio.o(.text)
    SDIO_GetPowerState                       0x0801c4b3   Thumb Code    12  stm32f4xx_sdio.o(.text)
    SDIO_SendCommand                         0x0801c4bf   Thumb Code    42  stm32f4xx_sdio.o(.text)
    SDIO_CmdStructInit                       0x0801c4e9   Thumb Code    14  stm32f4xx_sdio.o(.text)
    SDIO_GetCommandResponse                  0x0801c4f7   Thumb Code    10  stm32f4xx_sdio.o(.text)
    SDIO_GetResponse                         0x0801c501   Thumb Code    22  stm32f4xx_sdio.o(.text)
    SDIO_DataConfig                          0x0801c517   Thumb Code    48  stm32f4xx_sdio.o(.text)
    SDIO_DataStructInit                      0x0801c547   Thumb Code    20  stm32f4xx_sdio.o(.text)
    SDIO_GetDataCounter                      0x0801c55b   Thumb Code     8  stm32f4xx_sdio.o(.text)
    SDIO_ReadData                            0x0801c563   Thumb Code     8  stm32f4xx_sdio.o(.text)
    SDIO_WriteData                           0x0801c56b   Thumb Code     8  stm32f4xx_sdio.o(.text)
    SDIO_GetFIFOCount                        0x0801c573   Thumb Code     8  stm32f4xx_sdio.o(.text)
    SDIO_StartSDIOReadWait                   0x0801c57b   Thumb Code     6  stm32f4xx_sdio.o(.text)
    SDIO_StopSDIOReadWait                    0x0801c581   Thumb Code     8  stm32f4xx_sdio.o(.text)
    SDIO_SetSDIOReadWaitMode                 0x0801c589   Thumb Code     8  stm32f4xx_sdio.o(.text)
    SDIO_SetSDIOOperation                    0x0801c591   Thumb Code     8  stm32f4xx_sdio.o(.text)
    SDIO_SendSDIOSuspendCmd                  0x0801c599   Thumb Code     6  stm32f4xx_sdio.o(.text)
    SDIO_CommandCompletionCmd                0x0801c59f   Thumb Code     8  stm32f4xx_sdio.o(.text)
    SDIO_CEATAITCmd                          0x0801c5a7   Thumb Code    12  stm32f4xx_sdio.o(.text)
    SDIO_SendCEATACmd                        0x0801c5b3   Thumb Code     8  stm32f4xx_sdio.o(.text)
    SDIO_DMACmd                              0x0801c5bb   Thumb Code     8  stm32f4xx_sdio.o(.text)
    SDIO_ITConfig                            0x0801c5c3   Thumb Code    34  stm32f4xx_sdio.o(.text)
    SDIO_GetFlagStatus                       0x0801c5e5   Thumb Code    22  stm32f4xx_sdio.o(.text)
    SDIO_ClearFlag                           0x0801c5fb   Thumb Code     8  stm32f4xx_sdio.o(.text)
    SDIO_GetITStatus                         0x0801c603   Thumb Code    22  stm32f4xx_sdio.o(.text)
    SDIO_ClearITPendingBit                   0x0801c619   Thumb Code     8  stm32f4xx_sdio.o(.text)
    DMA_DeInit                               0x0801c631   Thumb Code   324  stm32f4xx_dma.o(.text)
    DMA_Init                                 0x0801c775   Thumb Code    82  stm32f4xx_dma.o(.text)
    DMA_StructInit                           0x0801c7c7   Thumb Code    34  stm32f4xx_dma.o(.text)
    DMA_Cmd                                  0x0801c7e9   Thumb Code    22  stm32f4xx_dma.o(.text)
    DMA_PeriphIncOffsetSizeConfig            0x0801c7ff   Thumb Code    22  stm32f4xx_dma.o(.text)
    DMA_FlowControllerConfig                 0x0801c815   Thumb Code    22  stm32f4xx_dma.o(.text)
    DMA_SetCurrDataCounter                   0x0801c82b   Thumb Code     4  stm32f4xx_dma.o(.text)
    DMA_GetCurrDataCounter                   0x0801c82f   Thumb Code     8  stm32f4xx_dma.o(.text)
    DMA_DoubleBufferModeConfig               0x0801c837   Thumb Code    24  stm32f4xx_dma.o(.text)
    DMA_DoubleBufferModeCmd                  0x0801c84f   Thumb Code    22  stm32f4xx_dma.o(.text)
    DMA_MemoryTargetConfig                   0x0801c865   Thumb Code    10  stm32f4xx_dma.o(.text)
    DMA_GetCurrentMemoryTarget               0x0801c86f   Thumb Code    20  stm32f4xx_dma.o(.text)
    DMA_GetCmdStatus                         0x0801c883   Thumb Code    20  stm32f4xx_dma.o(.text)
    DMA_GetFIFOStatus                        0x0801c897   Thumb Code    12  stm32f4xx_dma.o(.text)
    DMA_GetFlagStatus                        0x0801c8a3   Thumb Code    56  stm32f4xx_dma.o(.text)
    DMA_ClearFlag                            0x0801c8db   Thumb Code    40  stm32f4xx_dma.o(.text)
    DMA_ITConfig                             0x0801c903   Thumb Code    58  stm32f4xx_dma.o(.text)
    DMA_GetITStatus                          0x0801c93d   Thumb Code    84  stm32f4xx_dma.o(.text)
    DMA_ClearITPendingBit                    0x0801c991   Thumb Code    40  stm32f4xx_dma.o(.text)
    CAN_DeInit                               0x0801c9d9   Thumb Code    50  stm32f4xx_can.o(.text)
    CAN_Init                                 0x0801ca0b   Thumb Code   276  stm32f4xx_can.o(.text)
    CAN_FilterInit                           0x0801cb1f   Thumb Code   258  stm32f4xx_can.o(.text)
    CAN_StructInit                           0x0801cc21   Thumb Code    32  stm32f4xx_can.o(.text)
    CAN_SlaveStartBank                       0x0801cc41   Thumb Code    48  stm32f4xx_can.o(.text)
    CAN_DBGFreeze                            0x0801cc71   Thumb Code    22  stm32f4xx_can.o(.text)
    CAN_TTComModeCmd                         0x0801cc87   Thumb Code   118  stm32f4xx_can.o(.text)
    CAN_Transmit                             0x0801ccfd   Thumb Code   304  stm32f4xx_can.o(.text)
    CAN_TransmitStatus                       0x0801ce2d   Thumb Code   138  stm32f4xx_can.o(.text)
    CAN_CancelTransmit                       0x0801ceb7   Thumb Code    48  stm32f4xx_can.o(.text)
    CAN_Receive                              0x0801cee7   Thumb Code   240  stm32f4xx_can.o(.text)
    CAN_FIFORelease                          0x0801cfd7   Thumb Code    22  stm32f4xx_can.o(.text)
    CAN_MessagePending                       0x0801cfed   Thumb Code    30  stm32f4xx_can.o(.text)
    CAN_OperatingModeRequest                 0x0801d00b   Thumb Code   162  stm32f4xx_can.o(.text)
    CAN_Sleep                                0x0801d0ad   Thumb Code    30  stm32f4xx_can.o(.text)
    CAN_WakeUp                               0x0801d0cb   Thumb Code    48  stm32f4xx_can.o(.text)
    CAN_GetLastErrorCode                     0x0801d0fb   Thumb Code    12  stm32f4xx_can.o(.text)
    CAN_GetReceiveErrorCounter               0x0801d107   Thumb Code    10  stm32f4xx_can.o(.text)
    CAN_GetLSBTransmitErrorCounter           0x0801d111   Thumb Code    12  stm32f4xx_can.o(.text)
    CAN_ITConfig                             0x0801d11d   Thumb Code    18  stm32f4xx_can.o(.text)
    CAN_GetFlagStatus                        0x0801d12f   Thumb Code   120  stm32f4xx_can.o(.text)
    CAN_ClearFlag                            0x0801d1a7   Thumb Code    52  stm32f4xx_can.o(.text)
    CAN_GetITStatus                          0x0801d1ed   Thumb Code   310  stm32f4xx_can.o(.text)
    CAN_ClearITPendingBit                    0x0801d323   Thumb Code   162  stm32f4xx_can.o(.text)
    IWDG_WriteAccessCmd                      0x0801d3c9   Thumb Code     6  stm32f4xx_iwdg.o(.text)
    IWDG_SetPrescaler                        0x0801d3cf   Thumb Code     6  stm32f4xx_iwdg.o(.text)
    IWDG_SetReload                           0x0801d3d5   Thumb Code     6  stm32f4xx_iwdg.o(.text)
    IWDG_ReloadCounter                       0x0801d3db   Thumb Code    10  stm32f4xx_iwdg.o(.text)
    IWDG_Enable                              0x0801d3e5   Thumb Code    10  stm32f4xx_iwdg.o(.text)
    IWDG_GetFlagStatus                       0x0801d3ef   Thumb Code    20  stm32f4xx_iwdg.o(.text)
    SysTick_Handler                          0x0801d409   Thumb Code    16  delay.o(.text)
    delay_init                               0x0801d419   Thumb Code    58  delay.o(.text)
    delay_us                                 0x0801d453   Thumb Code    68  delay.o(.text)
    delay_ms                                 0x0801d497   Thumb Code    60  delay.o(.text)
    delay_xms                                0x0801d4d3   Thumb Code    24  delay.o(.text)
    delay_xns                                0x0801d4eb   Thumb Code    22  delay.o(.text)
    _sys_exit                                0x0801d509   Thumb Code     6  usart.o(.text)
    _ttywrch                                 0x0801d50f   Thumb Code     6  usart.o(.text)
    fputc                                    0x0801d515   Thumb Code    24  usart.o(.text)
    vUart1_init                              0x0801d52d   Thumb Code   164  usart.o(.text)
    vUart3_init                              0x0801d5d1   Thumb Code   160  usart.o(.text)
    USART2_IRQHandler                        0x0801d671   Thumb Code    22  usart.o(.text)
    vUart6_init                              0x0801d687   Thumb Code   158  usart.o(.text)
    USART3_IRQHandler                        0x0801d725   Thumb Code    32  usart.o(.text)
    USART6_IRQHandler                        0x0801d745   Thumb Code    26  usart.o(.text)
    vGet_img                                 0x0801d75f   Thumb Code    90  usart.o(.text)
    Reset_Handler                            0x0801d7e1   Thumb Code     8  startup_stm32f40_41xxx.o(.text)
    ADC_IRQHandler                           0x0801d7fb   Thumb Code     0  startup_stm32f40_41xxx.o(.text)
    CAN1_RX1_IRQHandler                      0x0801d7fb   Thumb Code     0  startup_stm32f40_41xxx.o(.text)
    CAN1_SCE_IRQHandler                      0x0801d7fb   Thumb Code     0  startup_stm32f40_41xxx.o(.text)
    CAN1_TX_IRQHandler                       0x0801d7fb   Thumb Code     0  startup_stm32f40_41xxx.o(.text)
    CAN2_RX0_IRQHandler                      0x0801d7fb   Thumb Code     0  startup_stm32f40_41xxx.o(.text)
    CAN2_RX1_IRQHandler                      0x0801d7fb   Thumb Code     0  startup_stm32f40_41xxx.o(.text)
    CAN2_SCE_IRQHandler                      0x0801d7fb   Thumb Code     0  startup_stm32f40_41xxx.o(.text)
    CAN2_TX_IRQHandler                       0x0801d7fb   Thumb Code     0  startup_stm32f40_41xxx.o(.text)
    CRYP_IRQHandler                          0x0801d7fb   Thumb Code     0  startup_stm32f40_41xxx.o(.text)
    DCMI_IRQHandler                          0x0801d7fb   Thumb Code     0  startup_stm32f40_41xxx.o(.text)
    DMA1_Stream0_IRQHandler                  0x0801d7fb   Thumb Code     0  startup_stm32f40_41xxx.o(.text)
    DMA1_Stream1_IRQHandler                  0x0801d7fb   Thumb Code     0  startup_stm32f40_41xxx.o(.text)
    DMA1_Stream2_IRQHandler                  0x0801d7fb   Thumb Code     0  startup_stm32f40_41xxx.o(.text)
    DMA1_Stream3_IRQHandler                  0x0801d7fb   Thumb Code     0  startup_stm32f40_41xxx.o(.text)
    DMA1_Stream4_IRQHandler                  0x0801d7fb   Thumb Code     0  startup_stm32f40_41xxx.o(.text)
    DMA1_Stream5_IRQHandler                  0x0801d7fb   Thumb Code     0  startup_stm32f40_41xxx.o(.text)
    DMA1_Stream6_IRQHandler                  0x0801d7fb   Thumb Code     0  startup_stm32f40_41xxx.o(.text)
    DMA1_Stream7_IRQHandler                  0x0801d7fb   Thumb Code     0  startup_stm32f40_41xxx.o(.text)
    DMA2_Stream0_IRQHandler                  0x0801d7fb   Thumb Code     0  startup_stm32f40_41xxx.o(.text)
    DMA2_Stream1_IRQHandler                  0x0801d7fb   Thumb Code     0  startup_stm32f40_41xxx.o(.text)
    DMA2_Stream2_IRQHandler                  0x0801d7fb   Thumb Code     0  startup_stm32f40_41xxx.o(.text)
    DMA2_Stream3_IRQHandler                  0x0801d7fb   Thumb Code     0  startup_stm32f40_41xxx.o(.text)
    DMA2_Stream4_IRQHandler                  0x0801d7fb   Thumb Code     0  startup_stm32f40_41xxx.o(.text)
    DMA2_Stream5_IRQHandler                  0x0801d7fb   Thumb Code     0  startup_stm32f40_41xxx.o(.text)
    DMA2_Stream6_IRQHandler                  0x0801d7fb   Thumb Code     0  startup_stm32f40_41xxx.o(.text)
    DMA2_Stream7_IRQHandler                  0x0801d7fb   Thumb Code     0  startup_stm32f40_41xxx.o(.text)
    ETH_IRQHandler                           0x0801d7fb   Thumb Code     0  startup_stm32f40_41xxx.o(.text)
    ETH_WKUP_IRQHandler                      0x0801d7fb   Thumb Code     0  startup_stm32f40_41xxx.o(.text)
    EXTI0_IRQHandler                         0x0801d7fb   Thumb Code     0  startup_stm32f40_41xxx.o(.text)
    EXTI1_IRQHandler                         0x0801d7fb   Thumb Code     0  startup_stm32f40_41xxx.o(.text)
    EXTI2_IRQHandler                         0x0801d7fb   Thumb Code     0  startup_stm32f40_41xxx.o(.text)
    EXTI3_IRQHandler                         0x0801d7fb   Thumb Code     0  startup_stm32f40_41xxx.o(.text)
    EXTI9_5_IRQHandler                       0x0801d7fb   Thumb Code     0  startup_stm32f40_41xxx.o(.text)
    FLASH_IRQHandler                         0x0801d7fb   Thumb Code     0  startup_stm32f40_41xxx.o(.text)
    FPU_IRQHandler                           0x0801d7fb   Thumb Code     0  startup_stm32f40_41xxx.o(.text)
    FSMC_IRQHandler                          0x0801d7fb   Thumb Code     0  startup_stm32f40_41xxx.o(.text)
    HASH_RNG_IRQHandler                      0x0801d7fb   Thumb Code     0  startup_stm32f40_41xxx.o(.text)
    I2C1_ER_IRQHandler                       0x0801d7fb   Thumb Code     0  startup_stm32f40_41xxx.o(.text)
    I2C1_EV_IRQHandler                       0x0801d7fb   Thumb Code     0  startup_stm32f40_41xxx.o(.text)
    I2C2_ER_IRQHandler                       0x0801d7fb   Thumb Code     0  startup_stm32f40_41xxx.o(.text)
    I2C2_EV_IRQHandler                       0x0801d7fb   Thumb Code     0  startup_stm32f40_41xxx.o(.text)
    I2C3_ER_IRQHandler                       0x0801d7fb   Thumb Code     0  startup_stm32f40_41xxx.o(.text)
    I2C3_EV_IRQHandler                       0x0801d7fb   Thumb Code     0  startup_stm32f40_41xxx.o(.text)
    OTG_FS_IRQHandler                        0x0801d7fb   Thumb Code     0  startup_stm32f40_41xxx.o(.text)
    OTG_FS_WKUP_IRQHandler                   0x0801d7fb   Thumb Code     0  startup_stm32f40_41xxx.o(.text)
    OTG_HS_EP1_IN_IRQHandler                 0x0801d7fb   Thumb Code     0  startup_stm32f40_41xxx.o(.text)
    OTG_HS_EP1_OUT_IRQHandler                0x0801d7fb   Thumb Code     0  startup_stm32f40_41xxx.o(.text)
    OTG_HS_IRQHandler                        0x0801d7fb   Thumb Code     0  startup_stm32f40_41xxx.o(.text)
    OTG_HS_WKUP_IRQHandler                   0x0801d7fb   Thumb Code     0  startup_stm32f40_41xxx.o(.text)
    PVD_IRQHandler                           0x0801d7fb   Thumb Code     0  startup_stm32f40_41xxx.o(.text)
    RCC_IRQHandler                           0x0801d7fb   Thumb Code     0  startup_stm32f40_41xxx.o(.text)
    RTC_Alarm_IRQHandler                     0x0801d7fb   Thumb Code     0  startup_stm32f40_41xxx.o(.text)
    RTC_WKUP_IRQHandler                      0x0801d7fb   Thumb Code     0  startup_stm32f40_41xxx.o(.text)
    SPI1_IRQHandler                          0x0801d7fb   Thumb Code     0  startup_stm32f40_41xxx.o(.text)
    SPI2_IRQHandler                          0x0801d7fb   Thumb Code     0  startup_stm32f40_41xxx.o(.text)
    SPI3_IRQHandler                          0x0801d7fb   Thumb Code     0  startup_stm32f40_41xxx.o(.text)
    TAMP_STAMP_IRQHandler                    0x0801d7fb   Thumb Code     0  startup_stm32f40_41xxx.o(.text)
    TIM1_BRK_TIM9_IRQHandler                 0x0801d7fb   Thumb Code     0  startup_stm32f40_41xxx.o(.text)
    TIM1_CC_IRQHandler                       0x0801d7fb   Thumb Code     0  startup_stm32f40_41xxx.o(.text)
    TIM1_TRG_COM_TIM11_IRQHandler            0x0801d7fb   Thumb Code     0  startup_stm32f40_41xxx.o(.text)
    TIM1_UP_TIM10_IRQHandler                 0x0801d7fb   Thumb Code     0  startup_stm32f40_41xxx.o(.text)
    TIM2_IRQHandler                          0x0801d7fb   Thumb Code     0  startup_stm32f40_41xxx.o(.text)
    TIM3_IRQHandler                          0x0801d7fb   Thumb Code     0  startup_stm32f40_41xxx.o(.text)
    TIM4_IRQHandler                          0x0801d7fb   Thumb Code     0  startup_stm32f40_41xxx.o(.text)
    TIM5_IRQHandler                          0x0801d7fb   Thumb Code     0  startup_stm32f40_41xxx.o(.text)
    TIM6_DAC_IRQHandler                      0x0801d7fb   Thumb Code     0  startup_stm32f40_41xxx.o(.text)
    TIM7_IRQHandler                          0x0801d7fb   Thumb Code     0  startup_stm32f40_41xxx.o(.text)
    TIM8_BRK_TIM12_IRQHandler                0x0801d7fb   Thumb Code     0  startup_stm32f40_41xxx.o(.text)
    TIM8_CC_IRQHandler                       0x0801d7fb   Thumb Code     0  startup_stm32f40_41xxx.o(.text)
    TIM8_TRG_COM_TIM14_IRQHandler            0x0801d7fb   Thumb Code     0  startup_stm32f40_41xxx.o(.text)
    TIM8_UP_TIM13_IRQHandler                 0x0801d7fb   Thumb Code     0  startup_stm32f40_41xxx.o(.text)
    UART4_IRQHandler                         0x0801d7fb   Thumb Code     0  startup_stm32f40_41xxx.o(.text)
    UART5_IRQHandler                         0x0801d7fb   Thumb Code     0  startup_stm32f40_41xxx.o(.text)
    WWDG_IRQHandler                          0x0801d7fb   Thumb Code     0  startup_stm32f40_41xxx.o(.text)
    __user_initial_stackheap                 0x0801d7fd   Thumb Code     0  startup_stm32f40_41xxx.o(.text)
    __use_no_semihosting                     0x0801d821   Thumb Code     2  use_no_semi_2.o(.text)
    malloc                                   0x0801d823   Thumb Code    94  h1_alloc.o(.text)
    free                                     0x0801d881   Thumb Code    78  h1_free.o(.text)
    __aeabi_ldivmod                          0x0801d8cf   Thumb Code     0  llsdiv.o(.text)
    _ll_sdiv                                 0x0801d8cf   Thumb Code    72  llsdiv.o(.text)
    tolower                                  0x0801d917   Thumb Code    26  tolower.o(.text)
    vsnprintf                                0x0801d931   Thumb Code    48  vsnprintf.o(.text)
    __2printf                                0x0801d965   Thumb Code    20  __2printf.o(.text)
    __2sprintf                               0x0801d97d   Thumb Code    38  __2sprintf.o(.text)
    _printf_pre_padding                      0x0801d9a9   Thumb Code    44  _printf_pad.o(.text)
    _printf_post_padding                     0x0801d9d5   Thumb Code    34  _printf_pad.o(.text)
    _printf_str                              0x0801d9f7   Thumb Code    82  _printf_str.o(.text)
    _printf_int_dec                          0x0801da49   Thumb Code   104  _printf_dec.o(.text)
    _printf_longlong_hex                     0x0801dac1   Thumb Code    86  _printf_hex_int_ll_ptr.o(.text)
    _printf_int_hex                          0x0801db17   Thumb Code    28  _printf_hex_int_ll_ptr.o(.text)
    _printf_ll_hex                           0x0801db33   Thumb Code    12  _printf_hex_int_ll_ptr.o(.text)
    _printf_hex_ptr                          0x0801db3f   Thumb Code    18  _printf_hex_int_ll_ptr.o(.text)
    __printf                                 0x0801db55   Thumb Code   388  __printf_flags_ss_wp.o(.text)
    __0sscanf                                0x0801dcdd   Thumb Code    52  __0sscanf.o(.text)
    _scanf_int                               0x0801dd19   Thumb Code   332  _scanf_int.o(.text)
    srand                                    0x0801de65   Thumb Code    42  rand.o(.text)
    _rand_init                               0x0801de8f   Thumb Code     4  rand.o(.text)
    strchr                                   0x0801dea1   Thumb Code    20  strchr.o(.text)
    strcpy                                   0x0801deb5   Thumb Code    72  strcpy.o(.text)
    strlen                                   0x0801defd   Thumb Code    62  strlen.o(.text)
    strncmp                                  0x0801df3b   Thumb Code   150  strncmp.o(.text)
    __aeabi_memcpy                           0x0801dfd1   Thumb Code     0  rt_memcpy_v6.o(.text)
    __rt_memcpy                              0x0801dfd1   Thumb Code   138  rt_memcpy_v6.o(.text)
    _memcpy_lastbytes                        0x0801e037   Thumb Code     0  rt_memcpy_v6.o(.text)
    __aeabi_memcpy4                          0x0801e05b   Thumb Code     0  rt_memcpy_w.o(.text)
    __aeabi_memcpy8                          0x0801e05b   Thumb Code     0  rt_memcpy_w.o(.text)
    __rt_memcpy_w                            0x0801e05b   Thumb Code   100  rt_memcpy_w.o(.text)
    _memcpy_lastbytes_aligned                0x0801e0a3   Thumb Code     0  rt_memcpy_w.o(.text)
    __aeabi_memset                           0x0801e0bf   Thumb Code    16  aeabi_memset.o(.text)
    __aeabi_memclr4                          0x0801e0cf   Thumb Code     0  rt_memclr_w.o(.text)
    __aeabi_memclr8                          0x0801e0cf   Thumb Code     0  rt_memclr_w.o(.text)
    __rt_memclr_w                            0x0801e0cf   Thumb Code    78  rt_memclr_w.o(.text)
    _memset_w                                0x0801e0d3   Thumb Code     0  rt_memclr_w.o(.text)
    strncpy                                  0x0801e11d   Thumb Code    86  strncpy.o(.text)
    __use_two_region_memory                  0x0801e173   Thumb Code     2  heapauxi.o(.text)
    __rt_heap_escrow                         0x0801e175   Thumb Code     2  heapauxi.o(.text)
    __rt_heap_expand                         0x0801e177   Thumb Code     2  heapauxi.o(.text)
    __I$use$semihosting                      0x0801e179   Thumb Code     0  use_no_semi.o(.text)
    __use_no_semihosting_swi                 0x0801e179   Thumb Code     2  use_no_semi.o(.text)
    __rt_ctype_table                         0x0801e17d   Thumb Code    16  rt_ctype_table.o(.text)
    __rt_heap_descriptor                     0x0801e18d   Thumb Code     8  rt_heap_descriptor_intlibspace.o(.text)
    __use_no_heap                            0x0801e195   Thumb Code     2  hguard.o(.text)
    __heap$guard                             0x0801e197   Thumb Code     2  hguard.o(.text)
    _terminate_user_alloc                    0x0801e199   Thumb Code     2  init_alloc.o(.text)
    _init_user_alloc                         0x0801e19b   Thumb Code     2  init_alloc.o(.text)
    __Heap_Full                              0x0801e19d   Thumb Code    34  init_alloc.o(.text)
    __Heap_Broken                            0x0801e1bf   Thumb Code     6  init_alloc.o(.text)
    _init_alloc                              0x0801e1c5   Thumb Code    94  init_alloc.o(.text)
    __Heap_Initialize                        0x0801e223   Thumb Code    10  h1_init.o(.text)
    __Heap_DescSize                          0x0801e22d   Thumb Code     4  h1_init.o(.text)
    __aeabi_uldivmod                         0x0801e231   Thumb Code     0  lludivv7m.o(.text)
    _ll_udiv                                 0x0801e231   Thumb Code   238  lludivv7m.o(.text)
    __read_errno                             0x0801e31f   Thumb Code    10  _rserrno.o(.text)
    __set_errno                              0x0801e329   Thumb Code    12  _rserrno.o(.text)
    _printf_truncate_signed                  0x0801e335   Thumb Code    18  _printf_truncate.o(.text)
    _printf_truncate_unsigned                0x0801e347   Thumb Code    18  _printf_truncate.o(.text)
    _printf_int_common                       0x0801e359   Thumb Code   178  _printf_intcommon.o(.text)
    _printf_charcount                        0x0801e40b   Thumb Code    40  _printf_charcount.o(.text)
    __lib_sel_fp_printf                      0x0801e433   Thumb Code     2  _printf_fp_dec.o(.text)
    _printf_fp_dec_real                      0x0801e5e1   Thumb Code   620  _printf_fp_dec.o(.text)
    _printf_char_common                      0x0801e857   Thumb Code    32  _printf_char_common.o(.text)
    _sputc                                   0x0801e87d   Thumb Code    10  _sputc.o(.text)
    _snputc                                  0x0801e887   Thumb Code    16  _snputc.o(.text)
    _printf_cs_common                        0x0801e897   Thumb Code    20  _printf_char.o(.text)
    _printf_char                             0x0801e8ab   Thumb Code    16  _printf_char.o(.text)
    _printf_string                           0x0801e8bb   Thumb Code     8  _printf_char.o(.text)
    _printf_char_file                        0x0801e8c5   Thumb Code    32  _printf_char_file.o(.text)
    _printf_wctomb                           0x0801e8e9   Thumb Code   182  _printf_wctomb.o(.text)
    _printf_longlong_dec                     0x0801e9a5   Thumb Code   108  _printf_longlong_dec.o(.text)
    _printf_longlong_oct                     0x0801ea21   Thumb Code    68  _printf_oct_int_ll.o(.text)
    _printf_int_oct                          0x0801ea65   Thumb Code    24  _printf_oct_int_ll.o(.text)
    _printf_ll_oct                           0x0801ea7d   Thumb Code    12  _printf_oct_int_ll.o(.text)
    _chval                                   0x0801ea91   Thumb Code    28  _chval.o(.text)
    _scanf_really_real                       0x0801eca9   Thumb Code   668  scanf_fp.o(.text)
    __vfscanf_char                           0x0801ef5d   Thumb Code    24  scanf_char.o(.text)
    _sgetc                                   0x0801ef7d   Thumb Code    30  _sgetc.o(.text)
    _sbackspace                              0x0801ef9b   Thumb Code    34  _sgetc.o(.text)
    __aeabi_memclr                           0x0801efbd   Thumb Code     0  rt_memclr.o(.text)
    __rt_memclr                              0x0801efbd   Thumb Code    68  rt_memclr.o(.text)
    _memset                                  0x0801efc1   Thumb Code     0  rt_memclr.o(.text)
    __user_libspace                          0x0801f001   Thumb Code     8  libspace.o(.text)
    __user_perproc_libspace                  0x0801f001   Thumb Code     0  libspace.o(.text)
    __user_perthread_libspace                0x0801f001   Thumb Code     0  libspace.o(.text)
    __rt_locale                              0x0801f009   Thumb Code     8  rt_locale_intlibspace.o(.text)
    __aeabi_errno_addr                       0x0801f011   Thumb Code     8  rt_errno_addr_intlibspace.o(.text)
    __errno$intlibspace                      0x0801f011   Thumb Code     0  rt_errno_addr_intlibspace.o(.text)
    __rt_errno_addr$intlibspace              0x0801f011   Thumb Code     0  rt_errno_addr_intlibspace.o(.text)
    __Heap_ProvideMemory                     0x0801f019   Thumb Code    52  h1_extend.o(.text)
    _ll_udiv10                               0x0801f04d   Thumb Code   138  lludiv10.o(.text)
    isspace                                  0x0801f0d7   Thumb Code    18  isspace.o(.text)
    _printf_fp_hex_real                      0x0801f0e9   Thumb Code   754  _printf_fp_hex.o(.text)
    _printf_fp_infnan                        0x0801f3e5   Thumb Code   112  _printf_fp_infnan.o(.text)
    _printf_lcs_common                       0x0801f465   Thumb Code    20  _printf_wchar.o(.text)
    _printf_wchar                            0x0801f479   Thumb Code    16  _printf_wchar.o(.text)
    _printf_wstring                          0x0801f489   Thumb Code     8  _printf_wchar.o(.text)
    __vfscanf                                0x0801f491   Thumb Code   878  _scanf.o(.text)
    _btod_etento                             0x0801f805   Thumb Code   216  bigflt0.o(.text)
    ferror                                   0x0801f8e1   Thumb Code     8  ferror.o(.text)
    _wcrtomb                                 0x0801f8e9   Thumb Code    64  _wcrtomb.o(.text)
    __rt_SIGRTMEM                            0x0801f929   Thumb Code    14  defsig_rtmem_outer.o(.text)
    __user_setup_stackheap                   0x0801f937   Thumb Code    74  sys_stackheap_outer.o(.text)
    _scanf_really_hex_real                   0x0801f981   Thumb Code   778  scanf_hexfp.o(.text)
    _scanf_really_infnan                     0x0801fc99   Thumb Code   292  scanf_infnan.o(.text)
    exit                                     0x0801fdcd   Thumb Code    12  exit.o(.text)
    __sig_exit                               0x0801fdd9   Thumb Code    10  defsig_exit.o(.text)
    __rt_SIGRTMEM_inner                      0x0801fde5   Thumb Code    22  defsig_rtmem_inner.o(.text)
    strcmp                                   0x0801fe35   Thumb Code   128  strcmpv7m.o(.text)
    __aeabi_llsl                             0x0801feb5   Thumb Code     0  llshl.o(.text)
    _ll_shift_l                              0x0801feb5   Thumb Code    38  llshl.o(.text)
    __default_signal_display                 0x0801fedb   Thumb Code    50  defsig_general.o(.text)
    _btod_d2e                                0x0801ff0d   Thumb Code    62  btod.o(CL$$btod_d2e)
    _d2e_denorm_low                          0x0801ff4b   Thumb Code    70  btod.o(CL$$btod_d2e_denorm_low)
    _d2e_norm_op1                            0x0801ff91   Thumb Code    96  btod.o(CL$$btod_d2e_norm_op1)
    __btod_div_common                        0x0801fff1   Thumb Code   696  btod.o(CL$$btod_div_common)
    _e2d                                     0x08020329   Thumb Code    80  btod.o(CL$$btod_e2d)
    _e2e                                     0x0802037d   Thumb Code   198  btod.o(CL$$btod_e2e)
    _btod_ediv                               0x08020443   Thumb Code    40  btod.o(CL$$btod_ediv)
    _btod_edivd                              0x0802046b   Thumb Code    40  btod.o(CL$$btod_edivd)
    _btod_emul                               0x08020493   Thumb Code    40  btod.o(CL$$btod_emul)
    _btod_emuld                              0x080204bb   Thumb Code    40  btod.o(CL$$btod_emuld)
    __btod_mult_common                       0x080204e3   Thumb Code   580  btod.o(CL$$btod_mult_common)
    __ARM_fpclassify                         0x08020727   Thumb Code    48  fpclassify.o(i.__ARM_fpclassify)
    __hardfp_fabs                            0x08020757   Thumb Code    20  fabs.o(i.__hardfp_fabs)
    __hardfp_floor                           0x08020771   Thumb Code   252  floor.o(i.__hardfp_floor)
    __hardfp_ldexp                           0x08020889   Thumb Code   200  ldexp.o(i.__hardfp_ldexp)
    __hardfp_pow                             0x08020959   Thumb Code  3044  pow.o(i.__hardfp_pow)
    __hardfp_round                           0x08021591   Thumb Code   194  round.o(i.__hardfp_round)
    __kernel_poly                            0x08021671   Thumb Code   248  poly.o(i.__kernel_poly)
    __mathlib_dbl_divzero                    0x08021769   Thumb Code    28  dunder.o(i.__mathlib_dbl_divzero)
    __mathlib_dbl_infnan2                    0x08021799   Thumb Code    20  dunder.o(i.__mathlib_dbl_infnan2)
    __mathlib_dbl_invalid                    0x080217b1   Thumb Code    24  dunder.o(i.__mathlib_dbl_invalid)
    __mathlib_dbl_overflow                   0x080217d1   Thumb Code    24  dunder.o(i.__mathlib_dbl_overflow)
    __mathlib_dbl_underflow                  0x080217f1   Thumb Code    24  dunder.o(i.__mathlib_dbl_underflow)
    __mathlib_narrow                         0x08021811   Thumb Code   166  narrow.o(i.__mathlib_narrow)
    __support_ldexp                          0x080218c9   Thumb Code    20  ldexp.o(i.__support_ldexp)
    _is_digit                                0x080218dd   Thumb Code    14  __printf_wp.o(i._is_digit)
    fabs                                     0x080218eb   Thumb Code    24  fabs.o(i.fabs)
    frexp                                    0x08021909   Thumb Code   118  frexp.o(i.frexp)
    sqrt                                     0x08021995   Thumb Code   110  sqrt.o(i.sqrt)
    _get_lc_ctype                            0x08021a05   Thumb Code    44  lc_ctype_c.o(locale$$code)
    _get_lc_numeric                          0x08021a31   Thumb Code    44  lc_numeric_c.o(locale$$code)
    __aeabi_dneg                             0x08021a5d   Thumb Code     0  basic.o(x$fpl$basic)
    _dneg                                    0x08021a5d   Thumb Code     6  basic.o(x$fpl$basic)
    __aeabi_fneg                             0x08021a63   Thumb Code     0  basic.o(x$fpl$basic)
    _fneg                                    0x08021a63   Thumb Code     6  basic.o(x$fpl$basic)
    _dabs                                    0x08021a69   Thumb Code     6  basic.o(x$fpl$basic)
    _fabs                                    0x08021a6f   Thumb Code     6  basic.o(x$fpl$basic)
    __aeabi_d2f                              0x08021a75   Thumb Code     0  d2f.o(x$fpl$d2f)
    _d2f                                     0x08021a75   Thumb Code    98  d2f.o(x$fpl$d2f)
    __aeabi_dadd                             0x08021ad9   Thumb Code     0  daddsub_clz.o(x$fpl$dadd)
    _dadd                                    0x08021ad9   Thumb Code   332  daddsub_clz.o(x$fpl$dadd)
    __fpl_dcheck_NaN1                        0x08021c29   Thumb Code    10  dcheck1.o(x$fpl$dcheck1)
    __fpl_dcmp_Inf                           0x08021c39   Thumb Code    24  dcmpi.o(x$fpl$dcmpinf)
    __aeabi_ddiv                             0x08021c51   Thumb Code     0  ddiv.o(x$fpl$ddiv)
    _ddiv                                    0x08021c51   Thumb Code   552  ddiv.o(x$fpl$ddiv)
    __aeabi_cdcmpeq                          0x08021f01   Thumb Code     0  deqf.o(x$fpl$deqf)
    _dcmpeq                                  0x08021f01   Thumb Code   120  deqf.o(x$fpl$deqf)
    __aeabi_d2iz                             0x08021f79   Thumb Code     0  dfix.o(x$fpl$dfix)
    _dfix                                    0x08021f79   Thumb Code    94  dfix.o(x$fpl$dfix)
    __aeabi_i2d                              0x08021fd7   Thumb Code     0  dflt_clz.o(x$fpl$dflt)
    _dflt                                    0x08021fd7   Thumb Code    46  dflt_clz.o(x$fpl$dflt)
    __aeabi_ui2d                             0x08022005   Thumb Code     0  dflt_clz.o(x$fpl$dfltu)
    _dfltu                                   0x08022005   Thumb Code    38  dflt_clz.o(x$fpl$dfltu)
    __aeabi_cdcmple                          0x0802202d   Thumb Code     0  dleqf.o(x$fpl$dleqf)
    _dcmple                                  0x0802202d   Thumb Code   120  dleqf.o(x$fpl$dleqf)
    __fpl_dcmple_InfNaN                      0x0802208f   Thumb Code     0  dleqf.o(x$fpl$dleqf)
    __aeabi_dmul                             0x080220a5   Thumb Code     0  dmul.o(x$fpl$dmul)
    _dmul                                    0x080220a5   Thumb Code   332  dmul.o(x$fpl$dmul)
    __fpl_dnaninf                            0x080221f9   Thumb Code   156  dnaninf.o(x$fpl$dnaninf)
    __fpl_dretinf                            0x08022295   Thumb Code    12  dretinf.o(x$fpl$dretinf)
    __aeabi_cdrcmple                         0x080222a1   Thumb Code     0  drleqf.o(x$fpl$drleqf)
    _drcmple                                 0x080222a1   Thumb Code   108  drleqf.o(x$fpl$drleqf)
    _drnd                                    0x0802230d   Thumb Code   180  drnd.o(x$fpl$drnd)
    __aeabi_drsub                            0x080223c1   Thumb Code     0  daddsub_clz.o(x$fpl$drsb)
    _drsb                                    0x080223c1   Thumb Code    22  daddsub_clz.o(x$fpl$drsb)
    _dsqrt                                   0x080223d9   Thumb Code   404  dsqrt_umaal.o(x$fpl$dsqrt)
    __aeabi_dsub                             0x08022571   Thumb Code     0  daddsub_clz.o(x$fpl$dsub)
    _dsub                                    0x08022571   Thumb Code   464  daddsub_clz.o(x$fpl$dsub)
    __aeabi_f2d                              0x08022745   Thumb Code     0  f2d.o(x$fpl$f2d)
    _f2d                                     0x08022745   Thumb Code    86  f2d.o(x$fpl$f2d)
    __fpl_fnaninf                            0x0802279b   Thumb Code   140  fnaninf.o(x$fpl$fnaninf)
    _fp_init                                 0x08022827   Thumb Code    10  fpinit.o(x$fpl$fpinit)
    __fplib_config_fpu_vfp                   0x0802282f   Thumb Code     0  fpinit.o(x$fpl$fpinit)
    __fplib_config_pureend_doubles           0x0802282f   Thumb Code     0  fpinit.o(x$fpl$fpinit)
    __fpl_fretinf                            0x08022831   Thumb Code    10  fretinf.o(x$fpl$fretinf)
    _printf_fp_dec                           0x0802283b   Thumb Code     4  printf1.o(x$fpl$printf1)
    _printf_fp_hex                           0x0802283f   Thumb Code     4  printf2.o(x$fpl$printf2)
    __fpl_return_NaN                         0x08022843   Thumb Code   100  retnan.o(x$fpl$retnan)
    __ARM_scalbn                             0x080228a7   Thumb Code    92  scalbn.o(x$fpl$scalbn)
    _scanf_real                              0x08022903   Thumb Code     4  scanf1.o(x$fpl$scanf1)
    _scanf_hex_real                          0x08022907   Thumb Code     4  scanf2.o(x$fpl$scanf2)
    _scanf_infnan                            0x0802290b   Thumb Code     4  scanf2.o(x$fpl$scanf2)
    __fpl_cmpreturn                          0x0802290f   Thumb Code    48  trapv.o(x$fpl$trapveneer)
    __I$use$fp                               0x0802293e   Number         0  usenofp.o(x$fpl$usenofp)
    __mathlib_zero                           0x0804d620   Data           8  qnan.o(.constdata)
    Region$$Table$$Base                      0x0804dc48   Number         0  anon$$obj.o(Region$$Table)
    Region$$Table$$Limit                     0x0804dc68   Number         0  anon$$obj.o(Region$$Table)
    __aeabi_HUGE_VAL                         0x0804dc68   Data           0  fpconst.o(c$$dinf)
    __aeabi_HUGE_VALL                        0x0804dc68   Data           0  fpconst.o(c$$dinf)
    __aeabi_INFINITY                         0x0804dc68   Data           0  fpconst.o(c$$dinf)
    __dInf                                   0x0804dc68   Data           0  fpconst.o(c$$dinf)
    __huge_val                               0x0804dc68   Data           0  fpconst.o(c$$dinf)
    __ctype                                  0x0804dc7d   Data           0  lc_ctype_c.o(locale$$data)
    SystemCoreClock                          0x10000000   Data           4  system_stm32f4xx.o(.data)
    AHBPrescTable                            0x10000004   Data          16  system_stm32f4xx.o(.data)
    weight_count                             0x10000014   Data           4  user_task.o(.data)
    eDevice_Status                           0x10000070   Data           1  user_task.o(.data)
    eDevice_Status1                          0x10000071   Data           1  user_task.o(.data)
    StartTask_Handler                        0x10000074   Data           4  user_task.o(.data)
    DctftTask_Handler                        0x10000078   Data           4  user_task.o(.data)
    LED0Task_Handler                         0x1000007c   Data           4  user_task.o(.data)
    WorkTask_Handler                         0x10000080   Data           4  user_task.o(.data)
    CANREC_Task_Handler                      0x10000084   Data           4  user_task.o(.data)
    CANSEND_Task_Handler                     0x10000088   Data           4  user_task.o(.data)
    S_DATATask_Handler                       0x1000008c   Data           4  user_task.o(.data)
    UartDebugTask_Handler                    0x10000090   Data           4  user_task.o(.data)
    StatusUpdates_Timer_Handle               0x10000094   Data           4  user_task.o(.data)
    uc_sensor_status                         0x10000098   Data           1  user_task.o(.data)
    canRecQueue_Handler                      0x1000009c   Data           4  user_task.o(.data)
    canSendQueue_Handler                     0x100000a0   Data           4  user_task.o(.data)
    uartDebugQueue_Handler                   0x100000a4   Data           4  user_task.o(.data)
    EventGroupHandler                        0x100000a8   Data           4  user_task.o(.data)
    myString                                 0x100000c4   Data         392  mystring.o(.data)
    timer_tick_count                         0x10000258   Data           4  cmd_process.o(.data)
    current_screen_id                        0x1000025c   Data           2  cmd_process.o(.data)
    AD_DRDY                                  0x1000026c   Data           4  ads126x.o(.data)
    M_ALL                                    0x100002d0   Data           4  load_sensor.o(.data)
    Edata                                    0x100002ec   Data         100  24cxx.o(.data)
    pEdata                                   0x10000350   Data           4  24cxx.o(.data)
    pxCurrentTCB                             0x10000354   Data           4  tasks.o(.data)
    fs                                       0x100003d0   Data           4  exfuns.o(.data)
    file                                     0x100003d4   Data           4  exfuns.o(.data)
    br                                       0x100003d8   Data           4  exfuns.o(.data)
    bw                                       0x100003dc   Data           4  exfuns.o(.data)
    fatbuf                                   0x100003e0   Data           4  exfuns.o(.data)
    TransferError                            0x100003ee   Data           1  sdio_sdcard.o(.data)
    TransferEnd                              0x100003ef   Data           1  sdio_sdcard.o(.data)
    tempbuff                                 0x100003f0   Data           4  sdio_sdcard.o(.data)
    __stdout                                 0x10000408   Data           4  usart.o(.data)
    cmd_buffer                               0x10000e7c   Data         128  cmd_process.o(.bss)
    sRtc_time                                0x10000efc   Data          32  cmd_process.o(.bss)
    _time                                    0x10000f1c   Data          64  cmd_process.o(.bss)
    xQueueRegistry                           0x100011f8   Data          64  queue.o(.bss)
    SDIO_InitStructure                       0x10001548   Data          24  sdio_sdcard.o(.bss)
    SDIO_CmdInitStructure                    0x10001560   Data          20  sdio_sdcard.o(.bss)
    SDIO_DataInitStructure                   0x10001574   Data          24  sdio_sdcard.o(.bss)
    SDCardInfo                               0x100015b0   Data          88  sdio_sdcard.o(.bss)
    SDIO_DATA_BUFFER                         0x10001608   Data         512  sdio_sdcard.o(.bss)
    _random_number_data                      0x10001808   Data         228  rand.o(.bss)
    __libspace_start                         0x100018ec   Data          96  libspace.o(.bss)
    __temporary_stack_top$libspace           0x1000194c   Data           0  libspace.o(.bss)



==============================================================================

Memory Map of the image

  Image Entry point : 0x08000189

  Load Region LR_IROM1 (Base: 0x08000000, Size: 0x0004e1a8, Max: 0x00100000, ABSOLUTE, COMPRESSED[0x0004df38])

    Execution Region ER_IROM1 (Base: 0x08000000, Size: 0x0004dd9c, Max: 0x00100000, ABSOLUTE)

    Base Addr    Size         Type   Attr      Idx    E Section Name        Object

    0x08000000   0x00000188   Data   RO         1585    RESET               startup_stm32f40_41xxx.o
    0x08000188   0x00000008   Code   RO         1779  * !!!main             c_w.l(__main.o)
    0x08000190   0x00000034   Code   RO         2313    !!!scatter          c_w.l(__scatter.o)
    0x080001c4   0x0000005a   Code   RO         2311    !!dczerorl2         c_w.l(__dczerorl2.o)
    0x0800021e   0x00000002   PAD
    0x08000220   0x0000001c   Code   RO         2315    !!handler_zi        c_w.l(__scatter_zi.o)
    0x0800023c   0x00000000   Code   RO         1749    .ARM.Collect$$_printf_percent$$00000000  c_w.l(_printf_percent.o)
    0x0800023c   0x00000006   Code   RO         1926    .ARM.Collect$$_printf_percent$$00000001  c_w.l(_printf_n.o)
    0x08000242   0x00000006   Code   RO         1927    .ARM.Collect$$_printf_percent$$00000002  c_w.l(_printf_p.o)
    0x08000248   0x00000006   Code   RO         1747    .ARM.Collect$$_printf_percent$$00000003  c_w.l(_printf_f.o)
    0x0800024e   0x00000006   Code   RO         1748    .ARM.Collect$$_printf_percent$$00000004  c_w.l(_printf_e.o)
    0x08000254   0x00000006   Code   RO         1930    .ARM.Collect$$_printf_percent$$00000005  c_w.l(_printf_g.o)
    0x0800025a   0x00000006   Code   RO         1931    .ARM.Collect$$_printf_percent$$00000006  c_w.l(_printf_a.o)
    0x08000260   0x0000000a   Code   RO         1936    .ARM.Collect$$_printf_percent$$00000007  c_w.l(_printf_ll.o)
    0x0800026a   0x00000006   Code   RO         1929    .ARM.Collect$$_printf_percent$$00000008  c_w.l(_printf_i.o)
    0x08000270   0x00000006   Code   RO         1745    .ARM.Collect$$_printf_percent$$00000009  c_w.l(_printf_d.o)
    0x08000276   0x00000006   Code   RO         1746    .ARM.Collect$$_printf_percent$$0000000A  c_w.l(_printf_u.o)
    0x0800027c   0x00000006   Code   RO         1928    .ARM.Collect$$_printf_percent$$0000000B  c_w.l(_printf_o.o)
    0x08000282   0x00000006   Code   RO         1744    .ARM.Collect$$_printf_percent$$0000000C  c_w.l(_printf_x.o)
    0x08000288   0x00000006   Code   RO         1933    .ARM.Collect$$_printf_percent$$0000000D  c_w.l(_printf_lli.o)
    0x0800028e   0x00000006   Code   RO         1934    .ARM.Collect$$_printf_percent$$0000000E  c_w.l(_printf_lld.o)
    0x08000294   0x00000006   Code   RO         1935    .ARM.Collect$$_printf_percent$$0000000F  c_w.l(_printf_llu.o)
    0x0800029a   0x00000006   Code   RO         1940    .ARM.Collect$$_printf_percent$$00000010  c_w.l(_printf_llo.o)
    0x080002a0   0x00000006   Code   RO         1941    .ARM.Collect$$_printf_percent$$00000011  c_w.l(_printf_llx.o)
    0x080002a6   0x0000000a   Code   RO         1937    .ARM.Collect$$_printf_percent$$00000012  c_w.l(_printf_l.o)
    0x080002b0   0x00000006   Code   RO         1742    .ARM.Collect$$_printf_percent$$00000013  c_w.l(_printf_c.o)
    0x080002b6   0x00000006   Code   RO         1743    .ARM.Collect$$_printf_percent$$00000014  c_w.l(_printf_s.o)
    0x080002bc   0x00000006   Code   RO         1938    .ARM.Collect$$_printf_percent$$00000015  c_w.l(_printf_lc.o)
    0x080002c2   0x00000006   Code   RO         1939    .ARM.Collect$$_printf_percent$$00000016  c_w.l(_printf_ls.o)
    0x080002c8   0x00000004   Code   RO         1932    .ARM.Collect$$_printf_percent$$00000017  c_w.l(_printf_percent_end.o)
    0x080002cc   0x00000002   Code   RO         2223    .ARM.Collect$$libinit$$00000000  c_w.l(libinit.o)
    0x080002ce   0x00000004   Code   RO         1954    .ARM.Collect$$libinit$$00000001  c_w.l(libinit2.o)
    0x080002d2   0x00000000   Code   RO         1957    .ARM.Collect$$libinit$$00000004  c_w.l(libinit2.o)
    0x080002d2   0x00000008   Code   RO         1958    .ARM.Collect$$libinit$$00000005  c_w.l(libinit2.o)
    0x080002da   0x00000000   Code   RO         1960    .ARM.Collect$$libinit$$0000000A  c_w.l(libinit2.o)
    0x080002da   0x00000000   Code   RO         1962    .ARM.Collect$$libinit$$0000000C  c_w.l(libinit2.o)
    0x080002da   0x00000004   Code   RO         1963    .ARM.Collect$$libinit$$0000000D  c_w.l(libinit2.o)
    0x080002de   0x00000000   Code   RO         1964    .ARM.Collect$$libinit$$0000000E  c_w.l(libinit2.o)
    0x080002de   0x00000006   Code   RO         1965    .ARM.Collect$$libinit$$0000000F  c_w.l(libinit2.o)
    0x080002e4   0x00000000   Code   RO         1967    .ARM.Collect$$libinit$$00000011  c_w.l(libinit2.o)
    0x080002e4   0x0000000c   Code   RO         1968    .ARM.Collect$$libinit$$00000012  c_w.l(libinit2.o)
    0x080002f0   0x00000000   Code   RO         1969    .ARM.Collect$$libinit$$00000013  c_w.l(libinit2.o)
    0x080002f0   0x00000000   Code   RO         1971    .ARM.Collect$$libinit$$00000015  c_w.l(libinit2.o)
    0x080002f0   0x0000000a   Code   RO         1972    .ARM.Collect$$libinit$$00000016  c_w.l(libinit2.o)
    0x080002fa   0x00000000   Code   RO         1973    .ARM.Collect$$libinit$$00000017  c_w.l(libinit2.o)
    0x080002fa   0x00000000   Code   RO         1975    .ARM.Collect$$libinit$$00000019  c_w.l(libinit2.o)
    0x080002fa   0x00000000   Code   RO         1977    .ARM.Collect$$libinit$$0000001B  c_w.l(libinit2.o)
    0x080002fa   0x00000000   Code   RO         1979    .ARM.Collect$$libinit$$0000001D  c_w.l(libinit2.o)
    0x080002fa   0x00000000   Code   RO         1981    .ARM.Collect$$libinit$$0000001F  c_w.l(libinit2.o)
    0x080002fa   0x00000000   Code   RO         1983    .ARM.Collect$$libinit$$00000021  c_w.l(libinit2.o)
    0x080002fa   0x00000000   Code   RO         1985    .ARM.Collect$$libinit$$00000023  c_w.l(libinit2.o)
    0x080002fa   0x00000000   Code   RO         1987    .ARM.Collect$$libinit$$00000025  c_w.l(libinit2.o)
    0x080002fa   0x00000000   Code   RO         1991    .ARM.Collect$$libinit$$0000002C  c_w.l(libinit2.o)
    0x080002fa   0x00000000   Code   RO         1993    .ARM.Collect$$libinit$$0000002E  c_w.l(libinit2.o)
    0x080002fa   0x00000000   Code   RO         1995    .ARM.Collect$$libinit$$00000030  c_w.l(libinit2.o)
    0x080002fa   0x00000000   Code   RO         1997    .ARM.Collect$$libinit$$00000032  c_w.l(libinit2.o)
    0x080002fa   0x00000002   Code   RO         1998    .ARM.Collect$$libinit$$00000033  c_w.l(libinit2.o)
    0x080002fc   0x00000002   Code   RO         2308    .ARM.Collect$$libshutdown$$00000000  c_w.l(libshutdown.o)
    0x080002fe   0x00000000   Code   RO         2250    .ARM.Collect$$libshutdown$$00000003  c_w.l(libshutdown2.o)
    0x080002fe   0x00000000   Code   RO         2253    .ARM.Collect$$libshutdown$$00000006  c_w.l(libshutdown2.o)
    0x080002fe   0x00000000   Code   RO         2256    .ARM.Collect$$libshutdown$$00000009  c_w.l(libshutdown2.o)
    0x080002fe   0x00000000   Code   RO         2258    .ARM.Collect$$libshutdown$$0000000B  c_w.l(libshutdown2.o)
    0x080002fe   0x00000000   Code   RO         2261    .ARM.Collect$$libshutdown$$0000000E  c_w.l(libshutdown2.o)
    0x080002fe   0x00000002   Code   RO         2262    .ARM.Collect$$libshutdown$$0000000F  c_w.l(libshutdown2.o)
    0x08000300   0x00000000   Code   RO         1865    .ARM.Collect$$rtentry$$00000000  c_w.l(__rtentry.o)
    0x08000300   0x00000000   Code   RO         2071    .ARM.Collect$$rtentry$$00000002  c_w.l(__rtentry2.o)
    0x08000300   0x00000006   Code   RO         2083    .ARM.Collect$$rtentry$$00000004  c_w.l(__rtentry4.o)
    0x08000306   0x00000000   Code   RO         2073    .ARM.Collect$$rtentry$$00000009  c_w.l(__rtentry2.o)
    0x08000306   0x00000004   Code   RO         2074    .ARM.Collect$$rtentry$$0000000A  c_w.l(__rtentry2.o)
    0x0800030a   0x00000000   Code   RO         2076    .ARM.Collect$$rtentry$$0000000C  c_w.l(__rtentry2.o)
    0x0800030a   0x00000008   Code   RO         2077    .ARM.Collect$$rtentry$$0000000D  c_w.l(__rtentry2.o)
    0x08000312   0x00000002   Code   RO         2232    .ARM.Collect$$rtexit$$00000000  c_w.l(rtexit.o)
    0x08000314   0x00000000   Code   RO         2282    .ARM.Collect$$rtexit$$00000002  c_w.l(rtexit2.o)
    0x08000314   0x00000004   Code   RO         2283    .ARM.Collect$$rtexit$$00000003  c_w.l(rtexit2.o)
    0x08000318   0x00000006   Code   RO         2284    .ARM.Collect$$rtexit$$00000004  c_w.l(rtexit2.o)
    0x0800031e   0x00000002   PAD
    0x08000320   0x000000be   Code   RO         1043    .emb_text           port.o
    0x080003de   0x00000002   PAD
    0x080003e0   0x00000010   Code   RO         1534    .emb_text           sys.o
    0x080003f0   0x00000034   Code   RO         1754    .emb_text           c_w.l(rand.o)
    0x08000424   0x00000000   Code   RO         2101    .emb_text           c_w.l(maybetermalloc1.o)
    0x08000424   0x000001a4   Code   RO            3    .text               main.o
    0x080005c8   0x00000014   Code   RO          258    .text               stm32f4xx_it.o
    0x080005dc   0x00000210   Code   RO          307    .text               system_stm32f4xx.o
    0x080007ec   0x000026a4   Code   RO          333    .text               user_task.o
    0x08002e90   0x00001b5a   Code   RO          390    .text               cjson.o
    0x080049ea   0x00000002   PAD
    0x080049ec   0x00000054   Code   RO          432    .text               mystring.o
    0x08004a40   0x00000338   Code   RO          459    .text               hardcontrol.o
    0x08004d78   0x00000078   Code   RO          505    .text               led.o
    0x08004df0   0x00000114   Code   RO          525    .text               cmd_queue.o
    0x08004f04   0x0000274a   Code   RO          548    .text               hmi_driver.o
    0x0800764e   0x00000002   PAD
    0x08007650   0x000000dc   Code   RO          568    .text               hmi_user_uart.o
    0x0800772c   0x0000126c   Code   RO          588    .text               cmd_process.o
    0x08008998   0x0000002c   Code   RO          616    .text               iwdg.o
    0x080089c4   0x00000438   Code   RO          636    .text               uart_rfid.o
    0x08008dfc   0x000008d0   Code   RO          659    .text               ads126x.o
    0x080096cc   0x00007a58   Code   RO          721    .text               load_sensor.o
    0x08011124   0x000000dc   Code   RO          746    .text               my_spi.o
    0x08011200   0x000001c0   Code   RO          789    .text               can.o
    0x080113c0   0x00000258   Code   RO          809    .text               24cxx.o
    0x08011618   0x00000268   Code   RO          841    .text               myiic.o
    0x08011880   0x0000045e   Code   RO          878    .text               event_groups.o
    0x08011cde   0x00000094   Code   RO          926    .text               list.o
    0x08011d72   0x00000002   PAD
    0x08011d74   0x00000fd0   Code   RO          949    .text               queue.o
    0x08012d44   0x00001988   Code   RO          978    .text               tasks.o
    0x080146cc   0x0000064c   Code   RO         1017    .text               timers.o
    0x08014d18   0x0000033c   Code   RO         1044    .text               port.o
    0x08015054   0x000002f8   Code   RO         1081    .text               heap_5.o
    0x0801534c   0x00000224   Code   RO         1103    .text               diskio.o
    0x08015570   0x00003f06   Code   RO         1124    .text               ff.o
    0x08019476   0x00000050   Code   RO         1151    .text               ffsystem.o
    0x080194c6   0x00000002   PAD
    0x080194c8   0x00000188   Code   RO         1171    .text               ffunicode.o
    0x08019650   0x000000dc   Code   RO         1193    .text               exfuns.o
    0x0801972c   0x00001d60   Code   RO         1220    .text               sdio_sdcard.o
    0x0801b48c   0x000000e0   Code   RO         1247    .text               misc.o
    0x0801b56c   0x00000294   Code   RO         1267    .text               stm32f4xx_gpio.o
    0x0801b800   0x0000065c   Code   RO         1287    .text               stm32f4xx_rcc.o
    0x0801be5c   0x00000094   Code   RO         1309    .text               stm32f4xx_syscfg.o
    0x0801bef0   0x00000454   Code   RO         1329    .text               stm32f4xx_usart.o
    0x0801c344   0x00000110   Code   RO         1349    .text               stm32f4xx_exti.o
    0x0801c454   0x000001dc   Code   RO         1412    .text               stm32f4xx_sdio.o
    0x0801c630   0x000003a8   Code   RO         1432    .text               stm32f4xx_dma.o
    0x0801c9d8   0x000009f0   Code   RO         1452    .text               stm32f4xx_can.o
    0x0801d3c8   0x00000040   Code   RO         1492    .text               stm32f4xx_iwdg.o
    0x0801d408   0x00000100   Code   RO         1512    .text               delay.o
    0x0801d508   0x000002d8   Code   RO         1552    .text               usart.o
    0x0801d7e0   0x00000040   Code   RO         1586    .text               startup_stm32f40_41xxx.o
    0x0801d820   0x00000002   Code   RO         1615    .text               c_w.l(use_no_semi_2.o)
    0x0801d822   0x0000005e   Code   RO         1621    .text               c_w.l(h1_alloc.o)
    0x0801d880   0x0000004e   Code   RO         1623    .text               c_w.l(h1_free.o)
    0x0801d8ce   0x00000048   Code   RO         1679    .text               c_w.l(llsdiv.o)
    0x0801d916   0x0000001a   Code   RO         1681    .text               c_w.l(tolower.o)
    0x0801d930   0x00000034   Code   RO         1683    .text               c_w.l(vsnprintf.o)
    0x0801d964   0x00000018   Code   RO         1685    .text               c_w.l(__2printf.o)
    0x0801d97c   0x0000002c   Code   RO         1687    .text               c_w.l(__2sprintf.o)
    0x0801d9a8   0x0000004e   Code   RO         1695    .text               c_w.l(_printf_pad.o)
    0x0801d9f6   0x00000052   Code   RO         1697    .text               c_w.l(_printf_str.o)
    0x0801da48   0x00000078   Code   RO         1699    .text               c_w.l(_printf_dec.o)
    0x0801dac0   0x00000094   Code   RO         1719    .text               c_w.l(_printf_hex_int_ll_ptr.o)
    0x0801db54   0x00000188   Code   RO         1739    .text               c_w.l(__printf_flags_ss_wp.o)
    0x0801dcdc   0x0000003c   Code   RO         1750    .text               c_w.l(__0sscanf.o)
    0x0801dd18   0x0000014c   Code   RO         1752    .text               c_w.l(_scanf_int.o)
    0x0801de64   0x0000003c   Code   RO         1755    .text               c_w.l(rand.o)
    0x0801dea0   0x00000014   Code   RO         1759    .text               c_w.l(strchr.o)
    0x0801deb4   0x00000048   Code   RO         1761    .text               c_w.l(strcpy.o)
    0x0801defc   0x0000003e   Code   RO         1763    .text               c_w.l(strlen.o)
    0x0801df3a   0x00000096   Code   RO         1765    .text               c_w.l(strncmp.o)
    0x0801dfd0   0x0000008a   Code   RO         1767    .text               c_w.l(rt_memcpy_v6.o)
    0x0801e05a   0x00000064   Code   RO         1769    .text               c_w.l(rt_memcpy_w.o)
    0x0801e0be   0x00000010   Code   RO         1771    .text               c_w.l(aeabi_memset.o)
    0x0801e0ce   0x0000004e   Code   RO         1773    .text               c_w.l(rt_memclr_w.o)
    0x0801e11c   0x00000056   Code   RO         1775    .text               c_w.l(strncpy.o)
    0x0801e172   0x00000006   Code   RO         1777    .text               c_w.l(heapauxi.o)
    0x0801e178   0x00000002   Code   RO         1861    .text               c_w.l(use_no_semi.o)
    0x0801e17a   0x00000002   PAD
    0x0801e17c   0x00000010   Code   RO         1866    .text               c_w.l(rt_ctype_table.o)
    0x0801e18c   0x00000008   Code   RO         1871    .text               c_w.l(rt_heap_descriptor_intlibspace.o)
    0x0801e194   0x00000004   Code   RO         1873    .text               c_w.l(hguard.o)
    0x0801e198   0x0000008a   Code   RO         1875    .text               c_w.l(init_alloc.o)
    0x0801e222   0x0000000e   Code   RO         1879    .text               c_w.l(h1_init.o)
    0x0801e230   0x000000ee   Code   RO         1893    .text               c_w.l(lludivv7m.o)
    0x0801e31e   0x00000016   Code   RO         1895    .text               c_w.l(_rserrno.o)
    0x0801e334   0x00000024   Code   RO         1897    .text               c_w.l(_printf_truncate.o)
    0x0801e358   0x000000b2   Code   RO         1899    .text               c_w.l(_printf_intcommon.o)
    0x0801e40a   0x00000028   Code   RO         1901    .text               c_w.l(_printf_charcount.o)
    0x0801e432   0x0000041a   Code   RO         1903    .text               c_w.l(_printf_fp_dec.o)
    0x0801e84c   0x00000030   Code   RO         1905    .text               c_w.l(_printf_char_common.o)
    0x0801e87c   0x0000000a   Code   RO         1907    .text               c_w.l(_sputc.o)
    0x0801e886   0x00000010   Code   RO         1909    .text               c_w.l(_snputc.o)
    0x0801e896   0x0000002c   Code   RO         1911    .text               c_w.l(_printf_char.o)
    0x0801e8c2   0x00000002   PAD
    0x0801e8c4   0x00000024   Code   RO         1913    .text               c_w.l(_printf_char_file.o)
    0x0801e8e8   0x000000bc   Code   RO         1915    .text               c_w.l(_printf_wctomb.o)
    0x0801e9a4   0x0000007c   Code   RO         1918    .text               c_w.l(_printf_longlong_dec.o)
    0x0801ea20   0x00000070   Code   RO         1924    .text               c_w.l(_printf_oct_int_ll.o)
    0x0801ea90   0x0000001c   Code   RO         1942    .text               c_w.l(_chval.o)
    0x0801eaac   0x000004a4   Code   RO         1944    .text               c_w.l(scanf_fp.o)
    0x0801ef50   0x0000002c   Code   RO         1946    .text               c_w.l(scanf_char.o)
    0x0801ef7c   0x00000040   Code   RO         1948    .text               c_w.l(_sgetc.o)
    0x0801efbc   0x00000044   Code   RO         1950    .text               c_w.l(rt_memclr.o)
    0x0801f000   0x00000008   Code   RO         2067    .text               c_w.l(libspace.o)
    0x0801f008   0x00000008   Code   RO         2092    .text               c_w.l(rt_locale_intlibspace.o)
    0x0801f010   0x00000008   Code   RO         2097    .text               c_w.l(rt_errno_addr_intlibspace.o)
    0x0801f018   0x00000034   Code   RO         2103    .text               c_w.l(h1_extend.o)
    0x0801f04c   0x0000008a   Code   RO         2107    .text               c_w.l(lludiv10.o)
    0x0801f0d6   0x00000012   Code   RO         2109    .text               c_w.l(isspace.o)
    0x0801f0e8   0x000002fc   Code   RO         2111    .text               c_w.l(_printf_fp_hex.o)
    0x0801f3e4   0x00000080   Code   RO         2114    .text               c_w.l(_printf_fp_infnan.o)
    0x0801f464   0x0000002c   Code   RO         2118    .text               c_w.l(_printf_wchar.o)
    0x0801f490   0x00000374   Code   RO         2120    .text               c_w.l(_scanf.o)
    0x0801f804   0x000000dc   Code   RO         2122    .text               c_w.l(bigflt0.o)
    0x0801f8e0   0x00000008   Code   RO         2147    .text               c_w.l(ferror.o)
    0x0801f8e8   0x00000040   Code   RO         2151    .text               c_w.l(_wcrtomb.o)
    0x0801f928   0x0000000e   Code   RO         2159    .text               c_w.l(defsig_rtmem_outer.o)
    0x0801f936   0x0000004a   Code   RO         2194    .text               c_w.l(sys_stackheap_outer.o)
    0x0801f980   0x00000318   Code   RO         2202    .text               c_w.l(scanf_hexfp.o)
    0x0801fc98   0x00000134   Code   RO         2204    .text               c_w.l(scanf_infnan.o)
    0x0801fdcc   0x0000000c   Code   RO         2206    .text               c_w.l(exit.o)
    0x0801fdd8   0x0000000a   Code   RO         2208    .text               c_w.l(defsig_exit.o)
    0x0801fde2   0x00000002   PAD
    0x0801fde4   0x00000050   Code   RO         2210    .text               c_w.l(defsig_rtmem_inner.o)
    0x0801fe34   0x00000080   Code   RO         2212    .text               c_w.l(strcmpv7m.o)
    0x0801feb4   0x00000026   Code   RO         2238    .text               c_w.l(llshl.o)
    0x0801feda   0x00000032   Code   RO         2242    .text               c_w.l(defsig_general.o)
    0x0801ff0c   0x0000003e   Code   RO         2125    CL$$btod_d2e        c_w.l(btod.o)
    0x0801ff4a   0x00000046   Code   RO         2127    CL$$btod_d2e_denorm_low  c_w.l(btod.o)
    0x0801ff90   0x00000060   Code   RO         2126    CL$$btod_d2e_norm_op1  c_w.l(btod.o)
    0x0801fff0   0x00000338   Code   RO         2135    CL$$btod_div_common  c_w.l(btod.o)
    0x08020328   0x00000054   Code   RO         2133    CL$$btod_e2d        c_w.l(btod.o)
    0x0802037c   0x000000c6   Code   RO         2132    CL$$btod_e2e        c_w.l(btod.o)
    0x08020442   0x00000028   Code   RO         2129    CL$$btod_ediv       c_w.l(btod.o)
    0x0802046a   0x00000028   Code   RO         2131    CL$$btod_edivd      c_w.l(btod.o)
    0x08020492   0x00000028   Code   RO         2128    CL$$btod_emul       c_w.l(btod.o)
    0x080204ba   0x00000028   Code   RO         2130    CL$$btod_emuld      c_w.l(btod.o)
    0x080204e2   0x00000244   Code   RO         2134    CL$$btod_mult_common  c_w.l(btod.o)
    0x08020726   0x00000030   Code   RO         2034    i.__ARM_fpclassify  m_wm.l(fpclassify.o)
    0x08020756   0x00000014   Code   RO         1819    i.__hardfp_fabs     m_wm.l(fabs.o)
    0x0802076a   0x00000006   PAD
    0x08020770   0x00000118   Code   RO         1825    i.__hardfp_floor    m_wm.l(floor.o)
    0x08020888   0x000000d0   Code   RO         2265    i.__hardfp_ldexp    m_wm.l(ldexp.o)
    0x08020958   0x00000c38   Code   RO         1843    i.__hardfp_pow      m_wm.l(pow.o)
    0x08021590   0x000000e0   Code   RO         1857    i.__hardfp_round    m_wm.l(round.o)
    0x08021670   0x000000f8   Code   RO         2050    i.__kernel_poly     m_wm.l(poly.o)
    0x08021768   0x00000030   Code   RO         2020    i.__mathlib_dbl_divzero  m_wm.l(dunder.o)
    0x08021798   0x00000014   Code   RO         2022    i.__mathlib_dbl_infnan2  m_wm.l(dunder.o)
    0x080217ac   0x00000004   PAD
    0x080217b0   0x00000020   Code   RO         2023    i.__mathlib_dbl_invalid  m_wm.l(dunder.o)
    0x080217d0   0x00000020   Code   RO         2024    i.__mathlib_dbl_overflow  m_wm.l(dunder.o)
    0x080217f0   0x00000020   Code   RO         2026    i.__mathlib_dbl_underflow  m_wm.l(dunder.o)
    0x08021810   0x000000b8   Code   RO         2186    i.__mathlib_narrow  m_wm.l(narrow.o)
    0x080218c8   0x00000014   Code   RO         2267    i.__support_ldexp   m_wm.l(ldexp.o)
    0x080218dc   0x0000000e   Code   RO         1732    i._is_digit         c_w.l(__printf_wp.o)
    0x080218ea   0x00000018   Code   RO         1821    i.fabs              m_wm.l(fabs.o)
    0x08021902   0x00000006   PAD
    0x08021908   0x0000008c   Code   RO         2228    i.frexp             m_wm.l(frexp.o)
    0x08021994   0x0000006e   Code   RO         2055    i.sqrt              m_wm.l(sqrt.o)
    0x08021a02   0x00000002   PAD
    0x08021a04   0x0000002c   Code   RO         2154    locale$$code        c_w.l(lc_ctype_c.o)
    0x08021a30   0x0000002c   Code   RO         2157    locale$$code        c_w.l(lc_numeric_c.o)
    0x08021a5c   0x00000018   Code   RO         1781    x$fpl$basic         fz_wm.l(basic.o)
    0x08021a74   0x00000062   Code   RO         1783    x$fpl$d2f           fz_wm.l(d2f.o)
    0x08021ad6   0x00000002   PAD
    0x08021ad8   0x00000150   Code   RO         1785    x$fpl$dadd          fz_wm.l(daddsub_clz.o)
    0x08021c28   0x00000010   Code   RO         2168    x$fpl$dcheck1       fz_wm.l(dcheck1.o)
    0x08021c38   0x00000018   Code   RO         1999    x$fpl$dcmpinf       fz_wm.l(dcmpi.o)
    0x08021c50   0x000002b0   Code   RO         1792    x$fpl$ddiv          fz_wm.l(ddiv.o)
    0x08021f00   0x00000078   Code   RO         1795    x$fpl$deqf          fz_wm.l(deqf.o)
    0x08021f78   0x0000005e   Code   RO         1797    x$fpl$dfix          fz_wm.l(dfix.o)
    0x08021fd6   0x0000002e   Code   RO         1802    x$fpl$dflt          fz_wm.l(dflt_clz.o)
    0x08022004   0x00000026   Code   RO         1801    x$fpl$dfltu         fz_wm.l(dflt_clz.o)
    0x0802202a   0x00000002   PAD
    0x0802202c   0x00000078   Code   RO         1807    x$fpl$dleqf         fz_wm.l(dleqf.o)
    0x080220a4   0x00000154   Code   RO         1809    x$fpl$dmul          fz_wm.l(dmul.o)
    0x080221f8   0x0000009c   Code   RO         2001    x$fpl$dnaninf       fz_wm.l(dnaninf.o)
    0x08022294   0x0000000c   Code   RO         2003    x$fpl$dretinf       fz_wm.l(dretinf.o)
    0x080222a0   0x0000006c   Code   RO         1811    x$fpl$drleqf        fz_wm.l(drleqf.o)
    0x0802230c   0x000000b4   Code   RO         2005    x$fpl$drnd          fz_wm.l(drnd.o)
    0x080223c0   0x00000016   Code   RO         1786    x$fpl$drsb          fz_wm.l(daddsub_clz.o)
    0x080223d6   0x00000002   PAD
    0x080223d8   0x00000198   Code   RO         2170    x$fpl$dsqrt         fz_wm.l(dsqrt_umaal.o)
    0x08022570   0x000001d4   Code   RO         1787    x$fpl$dsub          fz_wm.l(daddsub_clz.o)
    0x08022744   0x00000056   Code   RO         1813    x$fpl$f2d           fz_wm.l(f2d.o)
    0x0802279a   0x0000008c   Code   RO         2007    x$fpl$fnaninf       fz_wm.l(fnaninf.o)
    0x08022826   0x0000000a   Code   RO         2175    x$fpl$fpinit        fz_wm.l(fpinit.o)
    0x08022830   0x0000000a   Code   RO         2009    x$fpl$fretinf       fz_wm.l(fretinf.o)
    0x0802283a   0x00000004   Code   RO         1815    x$fpl$printf1       fz_wm.l(printf1.o)
    0x0802283e   0x00000004   Code   RO         2011    x$fpl$printf2       fz_wm.l(printf2.o)
    0x08022842   0x00000064   Code   RO         2224    x$fpl$retnan        fz_wm.l(retnan.o)
    0x080228a6   0x0000005c   Code   RO         2017    x$fpl$scalbn        fz_wm.l(scalbn.o)
    0x08022902   0x00000004   Code   RO         1817    x$fpl$scanf1        fz_wm.l(scanf1.o)
    0x08022906   0x00000008   Code   RO         2179    x$fpl$scanf2        fz_wm.l(scanf2.o)
    0x0802290e   0x00000030   Code   RO         2263    x$fpl$trapveneer    fz_wm.l(trapv.o)
    0x0802293e   0x00000000   Code   RO         2019    x$fpl$usenofp       fz_wm.l(usenofp.o)
    0x0802293e   0x00000002   PAD
    0x08022940   0x00000010   Data   RO            4    .constdata          main.o
    0x08022950   0x00000007   Data   RO          391    .constdata          cjson.o
    0x08022957   0x00000001   PAD
    0x08022958   0x00000044   Data   RO         1125    .constdata          ff.o
    0x0802299c   0x0002abb6   Data   RO         1172    .constdata          ffunicode.o
    0x0804d552   0x00000028   Data   RO         1720    .constdata          c_w.l(_printf_hex_int_ll_ptr.o)
    0x0804d57a   0x00000011   Data   RO         1740    .constdata          c_w.l(__printf_flags_ss_wp.o)
    0x0804d58b   0x00000005   PAD
    0x0804d590   0x00000088   Data   RO         1846    .constdata          m_wm.l(pow.o)
    0x0804d618   0x00000008   Data   RO         1916    .constdata          c_w.l(_printf_wctomb.o)
    0x0804d620   0x00000008   Data   RO         2052    .constdata          m_wm.l(qnan.o)
    0x0804d628   0x00000026   Data   RO         2112    .constdata          c_w.l(_printf_fp_hex.o)
    0x0804d64e   0x00000002   PAD
    0x0804d650   0x00000094   Data   RO         2123    .constdata          c_w.l(bigflt0.o)
    0x0804d6e4   0x000004c7   Data   RO          433    .conststring        mystring.o
    0x0804dbab   0x00000001   PAD
    0x0804dbac   0x0000009a   Data   RO          723    .conststring        load_sensor.o
    0x0804dc46   0x00000002   PAD
    0x0804dc48   0x00000020   Data   RO         2309    Region$$Table       anon$$obj.o
    0x0804dc68   0x00000008   Data   RO         2172    c$$dinf             fz_wm.l(fpconst.o)
    0x0804dc70   0x00000110   Data   RO         2153    locale$$data        c_w.l(lc_ctype_c.o)
    0x0804dd80   0x0000001c   Data   RO         2156    locale$$data        c_w.l(lc_numeric_c.o)


    Execution Region RW_IRAM2 (Base: 0x10000000, Size: 0x00001f50, Max: 0x00010000, ABSOLUTE, COMPRESSED[0x0000019c])

    Base Addr    Size         Type   Attr      Idx    E Section Name        Object

    0x10000000   0x00000014   Data   RW          308    .data               system_stm32f4xx.o
    0x10000014   0x000000a4   Data   RW          335    .data               user_task.o
    0x100000b8   0x0000000c   Data   RW          392    .data               cjson.o
    0x100000c4   0x00000188   Data   RW          434    .data               mystring.o
    0x1000024c   0x00000001   Data   RW          460    .data               hardcontrol.o
    0x1000024d   0x00000003   PAD
    0x10000250   0x00000006   Data   RW          527    .data               cmd_queue.o
    0x10000256   0x00000002   PAD
    0x10000258   0x0000000c   Data   RW          590    .data               cmd_process.o
    0x10000264   0x00000008   Data   RW          638    .data               uart_rfid.o
    0x1000026c   0x00000004   Data   RW          660    .data               ads126x.o
    0x10000270   0x00000079   Data   RW          724    .data               load_sensor.o
    0x100002e9   0x00000003   PAD
    0x100002ec   0x00000068   Data   RW          810    .data               24cxx.o
    0x10000354   0x0000003c   Data   RW          980    .data               tasks.o
    0x10000390   0x00000014   Data   RW         1019    .data               timers.o
    0x100003a4   0x0000000c   Data   RW         1045    .data               port.o
    0x100003b0   0x00000018   Data   RW         1082    .data               heap_5.o
    0x100003c8   0x00000006   Data   RW         1126    .data               ff.o
    0x100003ce   0x00000002   PAD
    0x100003d0   0x00000014   Data   RW         1195    .data               exfuns.o
    0x100003e4   0x00000010   Data   RW         1222    .data               sdio_sdcard.o
    0x100003f4   0x00000010   Data   RW         1288    .data               stm32f4xx_rcc.o
    0x10000404   0x00000004   Data   RW         1513    .data               delay.o
    0x10000408   0x00000004   Data   RW         1553    .data               usart.o
    0x1000040c   0x00000004   PAD
    0x10000410   0x00000668   Zero   RW          334    .bss                user_task.o
    0x10000a78   0x00000404   Zero   RW          526    .bss                cmd_queue.o
    0x10000e7c   0x000000e0   Zero   RW          589    .bss                cmd_process.o
    0x10000f5c   0x000001fc   Zero   RW          637    .bss                uart_rfid.o
    0x10001158   0x000000a0   Zero   RW          722    .bss                load_sensor.o
    0x100011f8   0x00000040   Zero   RW          950    .bss                queue.o
    0x10001238   0x000002e4   Zero   RW          979    .bss                tasks.o
    0x1000151c   0x00000028   Zero   RW         1018    .bss                timers.o
    0x10001544   0x00000004   PAD
    0x10001548   0x000002c0   Zero   RW         1221    .bss                sdio_sdcard.o
    0x10001808   0x000000e4   Zero   RW         1756    .bss                c_w.l(rand.o)
    0x100018ec   0x00000060   Zero   RW         2068    .bss                c_w.l(libspace.o)
    0x1000194c   0x00000004   PAD
    0x10001950   0x00000200   Zero   RW         1584    HEAP                startup_stm32f40_41xxx.o
    0x10001b50   0x00000400   Zero   RW         1583    STACK               startup_stm32f40_41xxx.o


==============================================================================

Image component sizes


      Code (inc. data)   RO Data    RW Data    ZI Data      Debug   Object Name

       600         56          0        104          0       4295   24cxx.o
      2256         64          0          4          0       5613   ads126x.o
       448         22          0          0          0       2160   can.o
      7002        236          7         12          0      22108   cjson.o
      4716        398          0         12        224      10607   cmd_process.o
       276         14          0          6       1028       2196   cmd_queue.o
       256          8          0          4          0       1847   delay.o
       548         82          0          0          0       3258   diskio.o
      1118         50          0          0          0      17289   event_groups.o
       220        124          0         20          0       1330   exfuns.o
     16134        160         68          6          0      55518   ff.o
        80          0          0          0          0       1514   ffsystem.o
       392         28     175030          0          0       2272   ffunicode.o
       824         56          0          1          0       3192   hardcontrol.o
       760         76          0         24          0       3485   heap_5.o
     10058          0          0          0          0      32345   hmi_driver.o
       220         12          0          0          0       1193   hmi_user_uart.o
        44          0          0          0          0        702   iwdg.o
       120          8          0          0          0        580   led.o
       148          0          0          0          0       1966   list.o
     31320       1246        154        121        160       8361   load_sensor.o
       420        134         16          0          0     321095   main.o
       224         20          0          0          0       1861   misc.o
       220          4          0          0          0        899   my_spi.o
       616         20          0          0          0       1908   myiic.o
        84         28       1223        392          0       2327   mystring.o
      1018        112          0         12          0       8387   port.o
      4048         56          0          0         64      20194   queue.o
      7520        278          0         16        704      24761   sdio_sdcard.o
        64         26        392          0       1536        860   startup_stm32f40_41xxx.o
      2544         38          0          0          0       8012   stm32f4xx_can.o
       936         32          0          0          0       6337   stm32f4xx_dma.o
       272         10          0          0          0       2307   stm32f4xx_exti.o
       660         44          0          0          0       4137   stm32f4xx_gpio.o
        20          0          0          0          0        967   stm32f4xx_it.o
        64          6          0          0          0       1353   stm32f4xx_iwdg.o
      1628         52          0         16          0      12948   stm32f4xx_rcc.o
       476         16          0          0          0       7432   stm32f4xx_sdio.o
       148         12          0          0          0       1865   stm32f4xx_syscfg.o
      1108         34          0          0          0       7840   stm32f4xx_usart.o
        16          0          0          0          0        512   sys.o
       528         46          0         20          0       1843   system_stm32f4xx.o
      6536        408          0         60        740      32893   tasks.o
      1612        110          0         20         40      11471   timers.o
      1080        248          0          8        508       3799   uart_rfid.o
       728         40          0          4          0       4704   usart.o
      9892       1534          0        164       1640      41742   user_task.o

    ----------------------------------------------------------------------
    120012       5948     176926       1036       6652     714285   Object Totals
         0          0         32          0          0          0   (incl. Generated)
        10          0          4         10          8          0   (incl. Padding)

    ----------------------------------------------------------------------

      Code (inc. data)   RO Data    RW Data    ZI Data      Debug   Library Member Name

        60          8          0          0          0         84   __0sscanf.o
        24          4          0          0          0         84   __2printf.o
        44          6          0          0          0         84   __2sprintf.o
        90          0          0          0          0          0   __dczerorl2.o
         8          0          0          0          0         68   __main.o
       392          4         17          0          0         92   __printf_flags_ss_wp.o
        14          0          0          0          0         68   __printf_wp.o
         0          0          0          0          0          0   __rtentry.o
        12          0          0          0          0          0   __rtentry2.o
         6          0          0          0          0          0   __rtentry4.o
        52          8          0          0          0          0   __scatter.o
        28          0          0          0          0          0   __scatter_zi.o
        28          0          0          0          0         68   _chval.o
         6          0          0          0          0          0   _printf_a.o
         6          0          0          0          0          0   _printf_c.o
        44          0          0          0          0        108   _printf_char.o
        48          6          0          0          0         96   _printf_char_common.o
        36          4          0          0          0         80   _printf_char_file.o
        40          0          0          0          0         68   _printf_charcount.o
         6          0          0          0          0          0   _printf_d.o
       120         16          0          0          0         92   _printf_dec.o
         6          0          0          0          0          0   _printf_e.o
         6          0          0          0          0          0   _printf_f.o
      1050          0          0          0          0        216   _printf_fp_dec.o
       764         10         38          0          0        100   _printf_fp_hex.o
       128         16          0          0          0         84   _printf_fp_infnan.o
         6          0          0          0          0          0   _printf_g.o
       148          4         40          0          0        160   _printf_hex_int_ll_ptr.o
         6          0          0          0          0          0   _printf_i.o
       178          0          0          0          0         88   _printf_intcommon.o
        10          0          0          0          0          0   _printf_l.o
         6          0          0          0          0          0   _printf_lc.o
        10          0          0          0          0          0   _printf_ll.o
         6          0          0          0          0          0   _printf_lld.o
         6          0          0          0          0          0   _printf_lli.o
         6          0          0          0          0          0   _printf_llo.o
         6          0          0          0          0          0   _printf_llu.o
         6          0          0          0          0          0   _printf_llx.o
       124         16          0          0          0         92   _printf_longlong_dec.o
         6          0          0          0          0          0   _printf_ls.o
         6          0          0          0          0          0   _printf_n.o
         6          0          0          0          0          0   _printf_o.o
       112          8          0          0          0        124   _printf_oct_int_ll.o
         6          0          0          0          0          0   _printf_p.o
        78          0          0          0          0        108   _printf_pad.o
         0          0          0          0          0          0   _printf_percent.o
         4          0          0          0          0          0   _printf_percent_end.o
         6          0          0          0          0          0   _printf_s.o
        82          0          0          0          0         80   _printf_str.o
        36          0          0          0          0         84   _printf_truncate.o
         6          0          0          0          0          0   _printf_u.o
        44          0          0          0          0        108   _printf_wchar.o
       188          6          8          0          0         92   _printf_wctomb.o
         6          0          0          0          0          0   _printf_x.o
        22          0          0          0          0        100   _rserrno.o
       884          6          0          0          0        100   _scanf.o
       332          0          0          0          0         96   _scanf_int.o
        64          0          0          0          0         84   _sgetc.o
        16          0          0          0          0         68   _snputc.o
        10          0          0          0          0         68   _sputc.o
        64          0          0          0          0         92   _wcrtomb.o
        16          0          0          0          0         68   aeabi_memset.o
       220          4        148          0          0         96   bigflt0.o
      2074        132          0          0          0        940   btod.o
        10          0          0          0          0         68   defsig_exit.o
        50          0          0          0          0         88   defsig_general.o
        80         58          0          0          0         76   defsig_rtmem_inner.o
        14          0          0          0          0         80   defsig_rtmem_outer.o
        12          0          0          0          0         72   exit.o
         8          0          0          0          0         68   ferror.o
        94          0          0          0          0         80   h1_alloc.o
        52          0          0          0          0         68   h1_extend.o
        78          0          0          0          0         80   h1_free.o
        14          0          0          0          0         84   h1_init.o
         6          0          0          0          0        152   heapauxi.o
         4          0          0          0          0        136   hguard.o
       138          0          0          0          0        168   init_alloc.o
        18          0          0          0          0         76   isspace.o
        44         10        272          0          0         76   lc_ctype_c.o
        44         10         28          0          0         76   lc_numeric_c.o
         2          0          0          0          0          0   libinit.o
        46          0          0          0          0          0   libinit2.o
         2          0          0          0          0          0   libshutdown.o
         2          0          0          0          0          0   libshutdown2.o
         8          4          0          0         96         68   libspace.o
        72          0          0          0          0         76   llsdiv.o
        38          0          0          0          0         68   llshl.o
       138          0          0          0          0         80   lludiv10.o
       238          0          0          0          0        100   lludivv7m.o
         0          0          0          0          0          0   maybetermalloc1.o
       112         18          0          0        228        160   rand.o
        16          4          0          0          0         76   rt_ctype_table.o
         8          4          0          0          0         68   rt_errno_addr_intlibspace.o
         8          4          0          0          0         68   rt_heap_descriptor_intlibspace.o
         8          4          0          0          0         68   rt_locale_intlibspace.o
        68          0          0          0          0         68   rt_memclr.o
        78          0          0          0          0         80   rt_memclr_w.o
       138          0          0          0          0         68   rt_memcpy_v6.o
       100          0          0          0          0         80   rt_memcpy_w.o
         2          0          0          0          0          0   rtexit.o
        10          0          0          0          0          0   rtexit2.o
        44          8          0          0          0         84   scanf_char.o
      1188         12          0          0          0        148   scanf_fp.o
       792         14          0          0          0        100   scanf_hexfp.o
       308         16          0          0          0        100   scanf_infnan.o
        20          0          0          0          0         68   strchr.o
       128          0          0          0          0         68   strcmpv7m.o
        72          0          0          0          0         80   strcpy.o
        62          0          0          0          0         76   strlen.o
       150          0          0          0          0         80   strncmp.o
        86          0          0          0          0         76   strncpy.o
        74          0          0          0          0         80   sys_stackheap_outer.o
        26          0          0          0          0         76   tolower.o
         2          0          0          0          0         68   use_no_semi.o
         2          0          0          0          0         68   use_no_semi_2.o
        52          4          0          0          0         80   vsnprintf.o
        24          0          0          0          0        164   basic.o
        98          4          0          0          0        140   d2f.o
       826         16          0          0          0        492   daddsub_clz.o
        16          4          0          0          0        116   dcheck1.o
        24          0          0          0          0        116   dcmpi.o
       688        140          0          0          0        256   ddiv.o
       120          4          0          0          0        140   deqf.o
        94          4          0          0          0        140   dfix.o
        84          0          0          0          0        232   dflt_clz.o
       120          4          0          0          0        140   dleqf.o
       340         12          0          0          0        152   dmul.o
       156          4          0          0          0        140   dnaninf.o
        12          0          0          0          0        116   dretinf.o
       108          0          0          0          0        128   drleqf.o
       180          4          0          0          0        128   drnd.o
       408         56          0          0          0        168   dsqrt_umaal.o
        86          4          0          0          0        132   f2d.o
       140          4          0          0          0        132   fnaninf.o
         0          0          8          0          0          0   fpconst.o
        10          0          0          0          0        116   fpinit.o
        10          0          0          0          0        116   fretinf.o
         4          0          0          0          0        116   printf1.o
         4          0          0          0          0        116   printf2.o
       100          0          0          0          0        116   retnan.o
        92          0          0          0          0        116   scalbn.o
         4          0          0          0          0        116   scanf1.o
         8          0          0          0          0        132   scanf2.o
        48          0          0          0          0        116   trapv.o
         0          0          0          0          0          0   usenofp.o
       164         44          0          0          0        620   dunder.o
        44          0          0          0          0        248   fabs.o
       280         28          0          0          0        156   floor.o
        48          0          0          0          0        124   fpclassify.o
       140         22          0          0          0        132   frexp.o
       228          8          0          0          0        308   ldexp.o
       184         18          0          0          0        152   narrow.o
       248          0          0          0          0        152   poly.o
      3128        302        136          0          0        356   pow.o
         0          0          8          0          0          0   qnan.o
       224         30          0          0          0        172   round.o
       110          0          0          0          0        148   sqrt.o

    ----------------------------------------------------------------------
     21228       1140        710          0        328      14528   Library Totals
        36          0          7          0          4          0   (incl. Padding)

    ----------------------------------------------------------------------

      Code (inc. data)   RO Data    RW Data    ZI Data      Debug   Library Name

     12590        428        551          0        324       7868   c_w.l
      3804        260          8          0          0       4092   fz_wm.l
      4798        452        144          0          0       2568   m_wm.l

    ----------------------------------------------------------------------
     21228       1140        710          0        328      14528   Library Totals

    ----------------------------------------------------------------------

==============================================================================


      Code (inc. data)   RO Data    RW Data    ZI Data      Debug   

    141240       7088     177636       1036       6980     709437   Grand Totals
    141240       7088     177636        412       6980     709437   ELF Image Totals (compressed)
    141240       7088     177636        412          0          0   ROM Totals

==============================================================================

    Total RO  Size (Code + RO Data)               318876 ( 311.40kB)
    Total RW  Size (RW Data + ZI Data)              8016 (   7.83kB)
    Total ROM Size (Code + RO Data + RW Data)     319288 ( 311.80kB)

==============================================================================

